	.file	"atan.c"
# GNU C (GCC) version 4.4.7 20120313 (Red Hat 4.4.7-11) (x86_64-redhat-linux)
#	compiled by GNU C version 4.4.7 20120313 (Red Hat 4.4.7-11), GMP version 4.3.1, MPFR version 2.4.1.
# GGC heuristics: --param ggc-min-expand=100 --param ggc-min-heapsize=131072
# options passed:  -I. -imultilib 32 -DLINUX_INLINE -DHAVE_CONFIG_H atan.c
# -m32 -mtune=generic -march=i686 -g -O1 -Wall -Wshadow -Wpointer-arith
# -Wcast-align -Wconversion -Waggregate-return -Wstrict-prototypes
# -Wnested-externs -Wlong-long -Winline -pedantic -std=c99 -fPIC
# -fno-strict-aliasing -fverbose-asm
# options enabled:  -fPIC -falign-loops -fargument-alias -fauto-inc-dec
# -fbranch-count-reg -fcommon -fcprop-registers -fdefer-pop
# -fdwarf2-cfi-asm -fearly-inlining -feliminate-unused-debug-types
# -ffunction-cse -fgcse-lm -fguess-branch-probability -fident
# -fif-conversion -fif-conversion2 -finline -finline-functions-called-once
# -fipa-pure-const -fipa-reference -fira-share-save-slots
# -fira-share-spill-slots -fivopts -fkeep-static-consts
# -fleading-underscore -fmath-errno -fmerge-constants -fmerge-debug-strings
# -fmove-loop-invariants -fpcc-struct-return -fpeephole -fsched-interblock
# -fsched-spec -fsched-stalled-insns-dep -fsigned-zeros
# -fsplit-ivs-in-unroller -fsplit-wide-types -ftoplevel-reorder
# -ftrapping-math -ftree-ccp -ftree-ch -ftree-coalesce-vars
# -ftree-copy-prop -ftree-copyrename -ftree-cselim -ftree-dce
# -ftree-dominator-opts -ftree-dse -ftree-fre -ftree-loop-im
# -ftree-loop-ivcanon -ftree-loop-optimize -ftree-parallelize-loops=
# -ftree-reassoc -ftree-scev-cprop -ftree-sink -ftree-sra
# -ftree-switch-conversion -ftree-ter -ftree-vect-loop-version
# -funit-at-a-time -fvar-tracking -fvar-tracking-assignments
# -fvect-cost-model -fverbose-asm -fzero-initialized-in-bss -m32 -m80387
# -m96bit-long-double -maccumulate-outgoing-args -malign-stringops
# -mfancy-math-387 -mfp-ret-in-387 -mfused-madd -mglibc -mieee-fp
# -mno-red-zone -mno-sse4 -mpush-args -msahf -mtls-direct-seg-refs

	.text
.Ltext0:
# Compiler executable checksum: c4107769ffcd19d44690c951fbc131c4

	.cfi_sections	.debug_frame
.globl scs_atan
	.type	scs_atan, @function
scs_atan:
.LFB7:
	.file 1 "atan.c"
	.loc 1 61 0
	.cfi_startproc
.LVL0:
	pushl	%ebp	#
	.cfi_def_cfa_offset 8
	.cfi_offset 5, -8
	movl	%esp, %ebp	#,
	.cfi_def_cfa_register 5
	pushl	%edi	#
	pushl	%esi	#
	pushl	%ebx	#
	subl	$588, %esp	#,
	.cfi_offset 3, -20
	.cfi_offset 6, -16
	.cfi_offset 7, -12
	call	__i686.get_pc_thunk.bx	#
	addl	$_GLOBAL_OFFSET_TABLE_, %ebx	#,
	movl	8(%ebp), %esi	# res_scs, res_scs
	.loc 1 69 0
	movl	12(%ebp), %eax	# x,
	movl	%eax, 4(%esp)	#,
	leal	-568(%ebp), %eax	#, tmp196
	movl	%eax, (%esp)	# tmp196,
	call	scs_get_d@PLT	#
	.loc 1 72 0
	movl	crlibm_second_step_taken@GOT(%ebx), %eax	#, tmp197
	addl	$1, (%eax)	#, crlibm_second_step_taken
	.loc 1 76 0
	fldl	-568(%ebp)	# db.d
	fldl	.LC0@GOTOFF(%ebx)	#
	fxch	%st(1)	#
	fucomi	%st(1), %st	#,
	fstp	%st(1)	#
	jbe	.L32	#,
.LVL1:
.LBB3:
	.loc 1 79 0
	fldl	992+arctan_table@GOTOFF(%ebx)	# <variable>.d
	fucomip	%st(1), %st	#,
	movl	$47, %eax	#, tmp271
	movl	$15, %ecx	#, tmp270
	cmovbe	%eax, %ecx	# tmp270,, tmp271, i
.LVL2:
	.loc 1 81 0
	movl	%ecx, %eax	# i, tmp205
	sall	$5, %eax	#, tmp205
	fldl	arctan_table@GOTOFF(%ebx,%eax)	# <variable>.d
	.loc 1 82 0
	leal	8(%ecx), %eax	#, tmp277
	leal	-8(%ecx), %edx	#, tmp278
	fucomip	%st(1), %st	#,
	cmovbe	%eax, %edx	# tmp278,, tmp277, i.45
.LVL3:
	.loc 1 83 0
	movl	%edx, %eax	# i.45, tmp208
	sall	$5, %eax	#, tmp208
	fldl	arctan_table@GOTOFF(%ebx,%eax)	# <variable>.d
	.loc 1 84 0
	leal	4(%edx), %ecx	#, tmp272
	leal	-4(%edx), %eax	#, tmp273
	fucomip	%st(1), %st	#,
	cmovbe	%ecx, %eax	# tmp273,, tmp272, i.46
.LVL4:
	.loc 1 85 0
	movl	%eax, %edx	# i.46, tmp211
	sall	$5, %edx	#, tmp211
	fldl	arctan_table@GOTOFF(%ebx,%edx)	# <variable>.d
	.loc 1 86 0
	leal	2(%eax), %edx	#, tmp279
	subl	$2, %eax	#, tmp280
.LVL5:
	fucomip	%st(1), %st	#,
	cmova	%eax, %edx	# tmp280,, tmp279
.LVL6:
	movl	%edx, -580(%ebp)	# tmp279, %sfp
.LVL7:
	.loc 1 87 0
	movl	%edx, %eax	# tmp279, tmp214
	sall	$5, %eax	#, tmp214
	fldl	arctan_table@GOTOFF(%ebx,%eax)	# <variable>.d
	fucomip	%st(1), %st	#,
	jbe	.L33	#,
	subl	$1, -580(%ebp)	#, %sfp
.LVL8:
	jmp	.L17	#
.LVL9:
.L33:
	.loc 1 88 0
	cmpl	$60, -580(%ebp)	#, %sfp
	setle	%al	#, tmp275
	movzbl	%al, %eax	# tmp275, tmp274
	addl	%eax, -580(%ebp)	# tmp274, %sfp
.LVL10:
.L17:
	.loc 1 89 0
	movl	-580(%ebp), %eax	# %sfp, tmp217
	sall	$5, %eax	#, tmp217
	fldl	arctan_table@GOTOFF(%ebx,%eax)	# <variable>.d
	movl	-580(%ebp), %eax	# %sfp, tmp276
	subl	$1, %eax	#, tmp276
	fucomip	%st(1), %st	#,
	fstp	%st(0)	#
	cmovbe	-580(%ebp), %eax	# %sfp,, tmp276
	movl	%eax, -580(%ebp)	# tmp276, %sfp
.LVL11:
	.loc 1 92 0
	leal	1(,%eax,4), %eax	#, tmp220
.LVL12:
	fldl	arctan_table@GOTOFF(%ebx,%eax,8)	# <variable>.d
	fstpl	4(%esp)	#
	leal	-320(%ebp), %edi	#, tmp224
	movl	%edi, (%esp)	# tmp224,
	call	scs_set_d@PLT	#
	.loc 1 94 0
	movl	12(%ebp), %edx	# x,
	movl	%edx, 8(%esp)	#,
	movl	%edi, 4(%esp)	# tmp224,
	leal	-416(%ebp), %eax	#,
	movl	%eax, -572(%ebp)	#, %sfp
	movl	%eax, (%esp)	#,
	call	scs_mul@PLT	#
	.loc 1 95 0
	leal	scs_one@GOTOFF(%ebx), %eax	#, tmp227
	movl	%eax, 8(%esp)	# tmp227,
	movl	-572(%ebp), %edx	# %sfp,
	movl	%edx, 4(%esp)	#,
	leal	-464(%ebp), %eax	#,
	movl	%eax, -572(%ebp)	#, %sfp
	movl	%eax, (%esp)	#,
	call	scs_add@PLT	#
	.loc 1 96 0
	movl	%edi, 8(%esp)	# tmp224,
	movl	12(%ebp), %edx	# x,
	movl	%edx, 4(%esp)	#,
	leal	-368(%ebp), %edi	#, tmp231
	movl	%edi, (%esp)	# tmp231,
	call	scs_sub@PLT	#
	.loc 1 97 0
	movl	-572(%ebp), %eax	# %sfp,
	movl	%eax, 8(%esp)	#,
	movl	%edi, 4(%esp)	# tmp231,
	movl	%edi, (%esp)	# tmp231,
	call	scs_div@PLT	#
	.loc 1 99 0
	movl	%edi, 4(%esp)	# tmp231,
	leal	-272(%ebp), %eax	#, tmp236
	movl	%eax, (%esp)	# tmp236,
	call	scs_get_d@PLT	#
	.loc 1 102 0
	movl	%edi, 4(%esp)	# tmp231,
	leal	-560(%ebp), %eax	#, tmp238
	movl	%eax, (%esp)	# tmp238,
	call	scs_square@PLT	#
	.loc 1 103 0
	leal	constant_poly@GOTOFF(%ebx), %edx	#,
	movl	%edx, -576(%ebp)	#, %sfp
	movl	%edx, 4(%esp)	#,
	movl	%esi, (%esp)	# res_scs,
	call	scs_set@PLT	#
.LVL13:
	movl	-576(%ebp), %eax	# %sfp,
	leal	48(%eax), %edi	#, ivtmp.30
	.loc 1 61 0
	leal	480(%eax), %edx	#,
	movl	%edx, -576(%ebp)	#, %sfp
	.loc 1 106 0
	leal	-560(%ebp), %eax	#,
	movl	%eax, -572(%ebp)	#, %sfp
.LVL14:
.L20:
	movl	-572(%ebp), %edx	# %sfp,
	movl	%edx, 8(%esp)	#,
	movl	%esi, 4(%esp)	# res_scs,
	movl	%esi, (%esp)	# res_scs,
	call	scs_mul@PLT	#
	.loc 1 107 0
	movl	%esi, 8(%esp)	# res_scs,
	movl	%edi, 4(%esp)	# ivtmp.30,
	movl	%esi, (%esp)	# res_scs,
	call	scs_add@PLT	#
	addl	$48, %edi	#, ivtmp.30
	.loc 1 104 0
	cmpl	-576(%ebp), %edi	# %sfp, ivtmp.30
	jne	.L20	#,
	.loc 1 109 0
	leal	-368(%ebp), %eax	#, tmp241
	movl	%eax, 8(%esp)	# tmp241,
	movl	%esi, 4(%esp)	# res_scs,
	leal	-512(%ebp), %eax	#,
	movl	%eax, -576(%ebp)	#, %sfp
	movl	%eax, (%esp)	#,
	call	scs_mul@PLT	#
	.loc 1 114 0
	movl	-580(%ebp), %edx	# %sfp,
	leal	1(%edx,%edx), %eax	#, tmp244
	leal	arctan_table@GOTOFF(%ebx), %edi	#, tmp245
	sall	$4, %eax	#, tmp246
	fldl	(%eax,%edi)	# <variable>.d
	fstpl	4(%esp)	#
	leal	-72(%ebp), %eax	#,
	movl	%eax, -572(%ebp)	#, %sfp
	movl	%eax, (%esp)	#,
	call	scs_set_d@PLT	#
	.loc 1 115 0
	movl	-580(%ebp), %eax	# %sfp, tmp250
	sall	$5, %eax	#, tmp250
	fldl	24(%edi,%eax)	# <variable>.d
	fstpl	4(%esp)	#
	leal	-120(%ebp), %edi	#, tmp254
	movl	%edi, (%esp)	# tmp254,
	call	scs_set_d@PLT	#
	.loc 1 116 0
	movl	-580(%ebp), %edx	# %sfp,
	fldl	atan_blolo@GOTOFF(%ebx,%edx,8)	# <variable>.d
	fstpl	4(%esp)	#
	leal	-168(%ebp), %eax	#,
	movl	%eax, -580(%ebp)	#, %sfp
	movl	%eax, (%esp)	#,
	call	scs_set_d@PLT	#
	.loc 1 117 0
	movl	%edi, 8(%esp)	# tmp254,
	movl	-572(%ebp), %edx	# %sfp,
	movl	%edx, 4(%esp)	#,
	leal	-216(%ebp), %edi	#, tmp261
	movl	%edi, (%esp)	# tmp261,
	call	scs_add@PLT	#
	.loc 1 118 0
	movl	-580(%ebp), %eax	# %sfp,
	movl	%eax, 8(%esp)	#,
	movl	%edi, 4(%esp)	# tmp261,
	leal	-264(%ebp), %edi	#, tmp264
	movl	%edi, (%esp)	# tmp264,
	call	scs_add@PLT	#
	.loc 1 119 0
	movl	-576(%ebp), %edx	# %sfp,
	movl	%edx, 8(%esp)	#,
	movl	%edi, 4(%esp)	# tmp264,
	movl	%esi, (%esp)	# res_scs,
	call	scs_add@PLT	#
	.loc 1 120 0
	jmp	.L23	#
.LVL15:
.L32:
	fstp	%st(0)	#
.LBE3:
	.loc 1 127 0
	movl	12(%ebp), %eax	# x,
	movl	%eax, 4(%esp)	#,
	leal	-560(%ebp), %eax	#, tmp267
	movl	%eax, (%esp)	# tmp267,
	call	scs_square@PLT	#
	.loc 1 128 0
	leal	constant_poly@GOTOFF(%ebx), %edx	#,
	movl	%edx, -580(%ebp)	#, %sfp
	movl	%edx, 4(%esp)	#,
	movl	%esi, (%esp)	# res_scs,
	call	scs_set@PLT	#
.LVL16:
	movl	-580(%ebp), %eax	# %sfp,
	leal	48(%eax), %edi	#, ivtmp.41
	.loc 1 61 0
	leal	480(%eax), %edx	#,
	movl	%edx, -580(%ebp)	#, %sfp
	.loc 1 131 0
	leal	-560(%ebp), %eax	#,
	movl	%eax, -572(%ebp)	#, %sfp
.LVL17:
.L22:
	movl	-572(%ebp), %edx	# %sfp,
	movl	%edx, 8(%esp)	#,
	movl	%esi, 4(%esp)	# res_scs,
	movl	%esi, (%esp)	# res_scs,
	call	scs_mul@PLT	#
	.loc 1 132 0
	movl	%esi, 8(%esp)	# res_scs,
	movl	%edi, 4(%esp)	# ivtmp.41,
	movl	%esi, (%esp)	# res_scs,
	call	scs_add@PLT	#
	addl	$48, %edi	#, ivtmp.41
	.loc 1 129 0
	cmpl	-580(%ebp), %edi	# %sfp, ivtmp.41
	jne	.L22	#,
	.loc 1 134 0
	movl	12(%ebp), %eax	# x,
	movl	%eax, 8(%esp)	#,
	movl	%esi, 4(%esp)	# res_scs,
	movl	%esi, (%esp)	# res_scs,
	call	scs_mul@PLT	#
.L23:
	.loc 1 137 0
	addl	$588, %esp	#,
	popl	%ebx	#
	.cfi_restore 3
	popl	%esi	#
	.cfi_restore 6
	popl	%edi	#
	.cfi_restore 7
	popl	%ebp	#
	.cfi_restore 5
	.cfi_def_cfa 4, 4
	ret
	.cfi_endproc
.LFE7:
	.size	scs_atan, .-scs_atan
.globl scs_atan_ru
	.type	scs_atan_ru, @function
scs_atan_ru:
.LFB10:
	.loc 1 207 0
	.cfi_startproc
.LVL18:
	pushl	%ebp	#
	.cfi_def_cfa_offset 8
	.cfi_offset 5, -8
	movl	%esp, %ebp	#,
	.cfi_def_cfa_register 5
	pushl	%esi	#
	pushl	%ebx	#
	addl	$-128, %esp	#,
	.cfi_offset 3, -16
	.cfi_offset 6, -12
	call	__i686.get_pc_thunk.bx	#
	addl	$_GLOBAL_OFFSET_TABLE_, %ebx	#,
	fldl	8(%ebp)	# x
.LVL19:
	.loc 1 213 0
	fstl	-112(%ebp)	# res.d
	.loc 1 216 0
	fldz
	fucomip	%st(1), %st	#,
	jbe	.L40	#,
.LVL20:
	.loc 1 221 0
	fchs
.LVL21:
	fstpl	4(%esp)	#
	leal	-56(%ebp), %esi	#, tmp64
	movl	%esi, (%esp)	# tmp64,
	call	scs_set_d@PLT	#
	.loc 1 222 0
	movl	%esi, 4(%esp)	# tmp64,
	leal	-104(%ebp), %esi	#, tmp66
	movl	%esi, (%esp)	# tmp66,
	call	scs_atan@PLT	#
	.loc 1 224 0
	movl	%esi, 4(%esp)	# tmp66,
	leal	-112(%ebp), %eax	#, tmp68
	movl	%eax, (%esp)	# tmp68,
	call	scs_get_d_minf@PLT	#
	.loc 1 225 0
	fldl	-112(%ebp)	# res.d
	fchs
	.loc 1 226 0
	jmp	.L37	#
.LVL22:
.L40:
	.loc 1 221 0
	fstpl	4(%esp)	#
	leal	-56(%ebp), %esi	#, tmp70
	movl	%esi, (%esp)	# tmp70,
	call	scs_set_d@PLT	#
.LVL23:
	.loc 1 222 0
	movl	%esi, 4(%esp)	# tmp70,
	leal	-104(%ebp), %esi	#, tmp72
	movl	%esi, (%esp)	# tmp72,
	call	scs_atan@PLT	#
	.loc 1 229 0
	movl	%esi, 4(%esp)	# tmp72,
	leal	-112(%ebp), %eax	#, tmp74
	movl	%eax, (%esp)	# tmp74,
	call	scs_get_d_pinf@PLT	#
	.loc 1 230 0
	fldl	-112(%ebp)	# res.d
.LVL24:
.L37:
	.loc 1 232 0
	subl	$-128, %esp	#,
	popl	%ebx	#
	.cfi_restore 3
	popl	%esi	#
	.cfi_restore 6
	popl	%ebp	#
	.cfi_restore 5
	.cfi_def_cfa 4, 4
	ret
	.cfi_endproc
.LFE10:
	.size	scs_atan_ru, .-scs_atan_ru
.globl scs_atan_rd
	.type	scs_atan_rd, @function
scs_atan_rd:
.LFB9:
	.loc 1 175 0
	.cfi_startproc
.LVL25:
	pushl	%ebp	#
	.cfi_def_cfa_offset 8
	.cfi_offset 5, -8
	movl	%esp, %ebp	#,
	.cfi_def_cfa_register 5
	pushl	%esi	#
	pushl	%ebx	#
	addl	$-128, %esp	#,
	.cfi_offset 3, -16
	.cfi_offset 6, -12
	call	__i686.get_pc_thunk.bx	#
	addl	$_GLOBAL_OFFSET_TABLE_, %ebx	#,
	fldl	8(%ebp)	# x
.LVL26:
	.loc 1 181 0
	fstl	-112(%ebp)	# res.d
	.loc 1 184 0
	fldz
	fucomip	%st(1), %st	#,
	jbe	.L47	#,
.LVL27:
	.loc 1 188 0
	fchs
.LVL28:
	fstpl	4(%esp)	#
	leal	-56(%ebp), %esi	#, tmp64
	movl	%esi, (%esp)	# tmp64,
	call	scs_set_d@PLT	#
	.loc 1 189 0
	movl	%esi, 4(%esp)	# tmp64,
	leal	-104(%ebp), %esi	#, tmp66
	movl	%esi, (%esp)	# tmp66,
	call	scs_atan@PLT	#
	.loc 1 191 0
	movl	%esi, 4(%esp)	# tmp66,
	leal	-112(%ebp), %eax	#, tmp68
	movl	%eax, (%esp)	# tmp68,
	call	scs_get_d_pinf@PLT	#
	.loc 1 192 0
	fldl	-112(%ebp)	# res.d
	fchs
	.loc 1 193 0
	jmp	.L44	#
.LVL29:
.L47:
	.loc 1 188 0
	fstpl	4(%esp)	#
	leal	-56(%ebp), %esi	#, tmp70
	movl	%esi, (%esp)	# tmp70,
	call	scs_set_d@PLT	#
.LVL30:
	.loc 1 189 0
	movl	%esi, 4(%esp)	# tmp70,
	leal	-104(%ebp), %esi	#, tmp72
	movl	%esi, (%esp)	# tmp72,
	call	scs_atan@PLT	#
	.loc 1 196 0
	movl	%esi, 4(%esp)	# tmp72,
	leal	-112(%ebp), %eax	#, tmp74
	movl	%eax, (%esp)	# tmp74,
	call	scs_get_d_minf@PLT	#
	.loc 1 197 0
	fldl	-112(%ebp)	# res.d
.LVL31:
.L44:
	.loc 1 199 0
	subl	$-128, %esp	#,
	popl	%ebx	#
	.cfi_restore 3
	popl	%esi	#
	.cfi_restore 6
	popl	%ebp	#
	.cfi_restore 5
	.cfi_def_cfa 4, 4
	ret
	.cfi_endproc
.LFE9:
	.size	scs_atan_rd, .-scs_atan_rd
.globl scs_atan_rn
	.type	scs_atan_rn, @function
scs_atan_rn:
.LFB8:
	.loc 1 145 0
	.cfi_startproc
.LVL32:
	pushl	%ebp	#
	.cfi_def_cfa_offset 8
	.cfi_offset 5, -8
	movl	%esp, %ebp	#,
	.cfi_def_cfa_register 5
	subl	$168, %esp	#,
	movl	%ebx, -12(%ebp)	#,
	movl	%esi, -8(%ebp)	#,
	movl	%edi, -4(%ebp)	#,
	.cfi_offset 7, -12
	.cfi_offset 6, -16
	.cfi_offset 3, -20
	call	__i686.get_pc_thunk.bx	#
	addl	$_GLOBAL_OFFSET_TABLE_, %ebx	#,
	fldl	8(%ebp)	# x
.LVL33:
	.loc 1 156 0
	fld	%st(0)	#
	movl	$1, %edi	#, sign
	fldz
	fucomip	%st(2), %st	#,
	jbe	.L52	#,
.LVL34:
	.loc 1 158 0
	fchs
	fxch	%st(1)	#
.LVL35:
	movl	$-1, %edi	#, sign
	jmp	.L50	#
.LVL36:
.L52:
	fxch	%st(1)	#
.LVL37:
.L50:
	.loc 1 154 0
	fstpl	-128(%ebp)	# res.d
	.loc 1 160 0
	fstpl	4(%esp)	#
	leal	-72(%ebp), %esi	#, tmp64
	movl	%esi, (%esp)	# tmp64,
	call	scs_set_d@PLT	#
.LVL38:
	.loc 1 161 0
	movl	%esi, 4(%esp)	# tmp64,
	leal	-120(%ebp), %esi	#, tmp66
	movl	%esi, (%esp)	# tmp66,
	call	scs_atan@PLT	#
	.loc 1 162 0
	movl	%esi, 4(%esp)	# tmp66,
	leal	-128(%ebp), %eax	#, tmp68
	movl	%eax, (%esp)	# tmp68,
	call	scs_get_d@PLT	#
	movl	%edi, -140(%ebp)	# sign,
	fildl	-140(%ebp)	#
	fmull	-128(%ebp)	# res.d
	.loc 1 167 0
	movl	-12(%ebp), %ebx	#,
	movl	-8(%ebp), %esi	#,
	movl	-4(%ebp), %edi	#,
.LVL39:
	movl	%ebp, %esp	#,
	.cfi_def_cfa_register 4
	.cfi_restore 7
	.cfi_restore 6
	.cfi_restore 3
	popl	%ebp	#
	.cfi_restore 5
	.cfi_def_cfa_offset 4
	ret
	.cfi_endproc
.LFE8:
	.size	scs_atan_rn, .-scs_atan_rn
	.section	.rodata
	.align 32
	.type	arctan_table, @object
	.size	arctan_table, 1984
arctan_table:
# i:
	.long	-1127328963
	.long	1066008056
# i:
	.long	662044679
	.long	1067056907
# i:
	.long	1231681900
	.long	1067056541
# i:
	.long	1963361770
	.long	-1137698409
# i:
	.long	-1865499599
	.long	1067679903
# i:
	.long	-481002302
	.long	1068106581
# i:
	.long	1228285485
	.long	1068105117
# i:
	.long	976031577
	.long	-1135861866
# i:
	.long	1761322278
	.long	1068516377
# i:
	.long	-1409826887
	.long	1068730336
# i:
	.long	-155066260
	.long	1068727861
# i:
	.long	-2089230300
	.long	-1135253744
# i:
	.long	-1412564443
	.long	1068944710
# i:
	.long	-496650069
	.long	1069159569
# i:
	.long	1221532054
	.long	1069153693
# i:
	.long	-1220809412
	.long	-1136434980
# i:
	.long	1831773510
	.long	1069374985
# i:
	.long	-1859857301
	.long	1069569274
# i:
	.long	1298235734
	.long	1069563522
# i:
	.long	1235772228
	.long	1013080142
# i:
	.long	-695080815
	.long	1069677646
# i:
	.long	1375039555
	.long	1069786406
# i:
	.long	-162596802
	.long	1069776437
# i:
	.long	-1264230746
	.long	1012869907
# i:
	.long	1394565387
	.long	1069895590
# i:
	.long	-1180752383
	.long	1070005236
# i:
	.long	-1624234971
	.long	1069989353
# i:
	.long	-992792370
	.long	-1138510294
# i:
	.long	89189105
	.long	1070115384
# i:
	.long	1641666109
	.long	1070226071
# i:
	.long	1208303560
	.long	1070202269
# i:
	.long	-1740158223
	.long	-1134059220
# i:
	.long	-1198040103
	.long	1070337338
# i:
	.long	-1128305988
	.long	1070449226
# i:
	.long	-254898727
	.long	1070415184
# i:
	.long	976343891
	.long	1013903959
# i:
	.long	-18585467
	.long	1070561776
# i:
	.long	-50959483
	.long	1070635563
# i:
	.long	1288055915
	.long	1070612098
# i:
	.long	-1782127486
	.long	1012770196
# i:
	.long	-1808632630
	.long	1070692565
# i:
	.long	-1992038909
	.long	1070749963
# i:
	.long	555710825
	.long	1070718556
# i:
	.long	184676164
	.long	1010585223
# i:
	.long	-1295010313
	.long	1070807780
# i:
	.long	-2119118369
	.long	1070866040
# i:
	.long	-176989535
	.long	1070825013
# i:
	.long	-1924957463
	.long	-1133040379
# i:
	.long	232000091
	.long	1070924767
# i:
	.long	515286617
	.long	1070983985
# i:
	.long	-910032800
	.long	1070931471
# i:
	.long	549091963
	.long	-1133768877
# i:
	.long	966319380
	.long	1071043720
# i:
	.long	-1426561615
	.long	1071103998
# i:
	.long	-1643405721
	.long	1071037929
# i:
	.long	-2029166962
	.long	1014593426
# i:
	.long	-1773486171
	.long	1071164847
# i:
	.long	10941518
	.long	1071226295
# i:
	.long	1917873098
	.long	1071144387
# i:
	.long	1134676899
	.long	1014107089
# i:
	.long	-499052210
	.long	1071288369
# i:
	.long	847187600
	.long	1071351102
# i:
	.long	1183883976
	.long	1071250845
# i:
	.long	-273207244
	.long	-1133902706
# i:
	.long	-75975651
	.long	1071414522
# i:
	.long	1740518202
	.long	1071478664
# i:
	.long	449609894
	.long	1071357303
# i:
	.long	-386198195
	.long	1013619671
# i:
	.long	-668230202
	.long	1071543559
# i:
	.long	-206263604
	.long	1071609243
# i:
	.long	-284932727
	.long	1071463760
# i:
	.long	166225198
	.long	1012357207
# i:
	.long	1609872043
	.long	1071660212
# i:
	.long	-644535313
	.long	1071693897
# i:
	.long	-1019726774
	.long	1071570218
# i:
	.long	-2125385070
	.long	1008977799
# i:
	.long	-400104214
	.long	1071728033
# i:
	.long	-572953120
	.long	1071762640
# i:
	.long	1270106403
	.long	1071660674
# i:
	.long	1239353944
	.long	1015852801
# i:
	.long	-314168404
	.long	1071797739
# i:
	.long	900759964
	.long	1071833353
# i:
	.long	902484893
	.long	1071713903
# i:
	.long	220115819
	.long	1011211059
# i:
	.long	-724706900
	.long	1071869503
# i:
	.long	-183355943
	.long	1071906215
# i:
	.long	534765188
	.long	1071767132
# i:
	.long	-745399130
	.long	1015479279
# i:
	.long	-503633519
	.long	1071943514
# i:
	.long	416337072
	.long	1071981427
# i:
	.long	166957001
	.long	1071820361
# i:
	.long	92308678
	.long	-1132151883
# i:
	.long	1609068071
	.long	1072019980
# i:
	.long	-631730879
	.long	1072059203
# i:
	.long	-200929731
	.long	1071873589
# i:
	.long	-1373259337
	.long	1005986652
# i:
	.long	583113309
	.long	1072099128
# i:
	.long	1653605052
	.long	1072139785
# i:
	.long	-568884865
	.long	1071926818
# i:
	.long	443360739
	.long	-1132071826
# i:
	.long	1895393213
	.long	1072181209
# i:
	.long	-292842155
	.long	1072223435
# i:
	.long	-936898084
	.long	1071980047
# i:
	.long	-54955508
	.long	-1132344073
# i:
	.long	1765087757
	.long	1072266502
# i:
	.long	2098028906
	.long	1072310448
# i:
	.long	-1304958920
	.long	1072033276
# i:
	.long	-118321080
	.long	-1132249432
# i:
	.long	-26013747
	.long	1072355315
# i:
	.long	557014589
	.long	1072401149
# i:
	.long	-1673056783
	.long	1072086505
# i:
	.long	-2132880823
	.long	1012826407
# i:
	.long	-1442155714
	.long	1072447994
# i:
	.long	496662121
	.long	1072495902
# i:
	.long	-2041180987
	.long	1072139734
# i:
	.long	-1818831599
	.long	-1132554705
# i:
	.long	-85005601
	.long	1072544923
# i:
	.long	-200009241
	.long	1072595115
# i:
	.long	1885646516
	.long	1072192963
# i:
	.long	1378200785
	.long	1014481148
# i:
	.long	866941194
	.long	1072646537
# i:
	.long	1354444034
	.long	1072696249
# i:
	.long	1517501929
	.long	1072246192
# i:
	.long	-1558654911
	.long	-1134192439
# i:
	.long	-1698094412
	.long	1072723285
# i:
	.long	636795991
	.long	1072751037
# i:
	.long	1149363353
	.long	1072299421
# i:
	.long	-1805343731
	.long	-1132271457
# i:
	.long	71362771
	.long	1072779542
# i:
	.long	-557262310
	.long	1072808840
# i:
	.long	781241578
	.long	1072352650
# i:
	.long	-28654789
	.long	1012971739
# i:
	.long	849165784
	.long	1072838977
# i:
	.long	-1885539411
	.long	1072869997
# i:
	.long	413147352
	.long	1072405879
# i:
	.long	1138608110
	.long	1014058659
# i:
	.long	-488935276
	.long	1072901951
# i:
	.long	-997914310
	.long	1072934893
# i:
	.long	45091351
	.long	1072459108
# i:
	.long	-1041929855
	.long	1012725538
# i:
	.long	-745916969
	.long	1072968880
# i:
	.long	383294407
	.long	1073003975
# i:
	.long	-322915848
	.long	1072512336
# i:
	.long	-964055525
	.long	1016069530
# i:
	.long	1866594669
	.long	1073040243
# i:
	.long	298136082
	.long	1073077758
# i:
	.long	-690863791
	.long	1072565565
# i:
	.long	-936331932
	.long	-1134211313
# i:
	.long	375170529
	.long	1073116597
# i:
	.long	320277595
	.long	1073156845
# i:
	.long	-1058742181
	.long	1072618794
# i:
	.long	-1083740162
	.long	-1131418941
# i:
	.long	-790715450
	.long	1073198593
# i:
	.long	301722176
	.long	1073241943
# i:
	.long	-1426540898
	.long	1072672023
# i:
	.long	-425772297
	.long	1015778723
# i:
	.long	2035314513
	.long	1073287001
# i:
	.long	-1963695905
	.long	1073333887
# i:
	.long	1250358635
	.long	1072709250
# i:
	.long	-568462325
	.long	1015825985
# i:
	.long	-682821743
	.long	1073382730
# i:
	.long	1248423700
	.long	1073433673
# i:
	.long	-1080929940
	.long	1072735864
# i:
	.long	1779001007
	.long	-1131309825
# i:
	.long	-1281940922
	.long	1073486870
# i:
	.long	-2131707842
	.long	1073542494
# i:
	.long	882803130
	.long	1072762479
# i:
	.long	1020288019
	.long	1016888594
# i:
	.long	-958719951
	.long	1073600733
# i:
	.long	-1837300836
	.long	1073661797
# i:
	.long	-1448372170
	.long	1072789093
# i:
	.long	2073825627
	.long	-1131262470
# i:
	.long	-1527328718
	.long	1073725917
# i:
	.long	-840146164
	.long	1073767587
# i:
	.long	515483172
	.long	1072815708
# i:
	.long	1499382109
	.long	-1133509898
# i:
	.long	1454308082
	.long	1073803105
# i:
	.long	49954711
	.long	1073840584
# i:
	.long	-1815561176
	.long	1072842322
# i:
	.long	-971078283
	.long	-1131420874
# i:
	.long	-40206143
	.long	1073880203
# i:
	.long	411047360
	.long	1073922168
# i:
	.long	148433463
	.long	1072868937
# i:
	.long	1445467735
	.long	-1130772157
# i:
	.long	2103912092
	.long	1073966705
# i:
	.long	401456115
	.long	1074014076
# i:
	.long	2112503692
	.long	1072895551
# i:
	.long	-1863618021
	.long	1016779561
# i:
	.long	-261492252
	.long	1074064575
# i:
	.long	-1450110023
	.long	1074118543
# i:
	.long	-218314077
	.long	1072922165
# i:
	.long	-1959365388
	.long	-1130969897
# i:
	.long	2013358519
	.long	1074176368
# i:
	.long	-288367047
	.long	1074238499
# i:
	.long	1745918246
	.long	1072948780
# i:
	.long	1180052861
	.long	1016936798
# i:
	.long	832323330
	.long	1074305460
# i:
	.long	877206682
	.long	1074377859
# i:
	.long	-584730640
	.long	1072975394
# i:
	.long	-1775658295
	.long	-1130707960
# i:
	.long	95454026
	.long	1074456414
# i:
	.long	1683076841
	.long	1074541973
# i:
	.long	1379676920
	.long	1073002009
# i:
	.long	-1704134613
	.long	1016608557
# i:
	.long	1939591395
	.long	1074635549
# i:
	.long	143338003
	.long	1074738359
# i:
	.long	-950790827
	.long	1073028623
# i:
	.long	-646135433
	.long	-1135763231
# i:
	.long	411483223
	.long	1074821139
# i:
	.long	-1920886460
	.long	1074884157
# i:
	.long	1013803309
	.long	1073055238
# i:
	.long	-640598970
	.long	-1132614755
# i:
	.long	-1949425087
	.long	1074954554
# i:
	.long	-1626452289
	.long	1075033733
# i:
	.long	-1316472908
	.long	1073081852
# i:
	.long	-1132114063
	.long	-1132101120
# i:
	.long	1255067256
	.long	1075123478
# i:
	.long	-204668535
	.long	1075226089
# i:
	.long	648317220
	.long	1073108467
# i:
	.long	250640131
	.long	-1131029292
# i:
	.long	-1792607559
	.long	1075344590
# i:
	.long	-1174046711
	.long	1075483028
# i:
	.long	-1681759049
	.long	1073135081
# i:
	.long	1431839157
	.long	1015259063
# i:
	.long	-527120109
	.long	1075646955
# i:
	.long	-1608582454
	.long	1075841585
# i:
	.long	283234469
	.long	1073161696
# i:
	.long	1457183491
	.long	1015461435
# i:
	.long	571341337
	.long	1075962556
# i:
	.long	-72931176
	.long	1076114501
# i:
	.long	-2046635491
	.long	1073188310
# i:
	.long	1294903008
	.long	-1130375210
# i:
	.long	-801932215
	.long	1076311139
# i:
	.long	1246386717
	.long	1076575687
# i:
	.long	-81433280
	.long	1073214924
# i:
	.long	-1567819908
	.long	1016417950
# i:
	.long	641009942
	.long	1076919182
# i:
	.long	617878975
	.long	1077205974
# i:
	.long	1883874598
	.long	1073241539
# i:
	.long	-382253824
	.long	-1132190491
# i:
	.long	1232859890
	.long	1077699279
# i:
	.long	1816052796
	.long	1078342152
# i:
	.long	-445678638
	.long	1073268153
# i:
	.long	796836179
	.long	-1132341894
# i:
	.long	-90304780
	.long	1079602371
# i:
	.long	2080342825
	.long	1079292612
# i:
	.long	-214709318
	.long	1073279106
# i:
	.long	956939322
	.long	1016407415
	.align 32
	.type	scs_one, @object
	.size	scs_one, 48
scs_one:
# h_word:
	.long	1
	.long	0
	.long	0
	.long	0
	.long	0
	.long	0
	.long	0
	.long	0
# exception:
# i:
	.long	0
	.long	1072693248
# index:
	.long	0
# sign:
	.long	1
	.align 32
	.type	constant_poly, @object
	.size	constant_poly, 480
constant_poly:
# h_word:
	.long	56512727
	.long	621640003
	.long	395589093
	.long	56512727
	.long	621640003
	.long	395589093
	.long	56512727
	.long	621640003
# exception:
# i:
	.long	0
	.long	1072693248
# index:
	.long	-1
# sign:
	.long	-1
# h_word:
	.long	63161283
	.long	821096688
	.long	1010580540
	.long	252645135
	.long	63161283
	.long	821096688
	.long	1010580540
	.long	252645135
# exception:
# i:
	.long	0
	.long	1072693248
# index:
	.long	-1
# sign:
	.long	1
# h_word:
	.long	71582788
	.long	286331153
	.long	71582788
	.long	286331153
	.long	71582788
	.long	286331153
	.long	71582788
	.long	286331153
# exception:
# i:
	.long	0
	.long	1072693248
# index:
	.long	-1
# sign:
	.long	-1
# h_word:
	.long	82595524
	.long	991146299
	.long	82595524
	.long	991146299
	.long	82595524
	.long	991146299
	.long	82595524
	.long	991146299
# exception:
# i:
	.long	0
	.long	1072693248
# index:
	.long	-1
# sign:
	.long	1
# h_word:
	.long	97612893
	.long	97612893
	.long	97612893
	.long	97612893
	.long	97612893
	.long	97612893
	.long	97612893
	.long	97612893
# exception:
# i:
	.long	0
	.long	1072693248
# index:
	.long	-1
# sign:
	.long	-1
# h_word:
	.long	119304647
	.long	119304647
	.long	119304647
	.long	119304647
	.long	119304647
	.long	119304647
	.long	119304647
	.long	119304647
# exception:
# i:
	.long	0
	.long	1072693248
# index:
	.long	-1
# sign:
	.long	1
# h_word:
	.long	153391689
	.long	153391689
	.long	153391689
	.long	153391689
	.long	153391689
	.long	153391689
	.long	153391689
	.long	153391689
# exception:
# i:
	.long	0
	.long	1072693248
# index:
	.long	-1
# sign:
	.long	-1
# h_word:
	.long	214748364
	.long	858993459
	.long	214748364
	.long	858993459
	.long	214748364
	.long	858993459
	.long	214748364
	.long	858993459
# exception:
# i:
	.long	0
	.long	1072693248
# index:
	.long	-1
# sign:
	.long	1
# h_word:
	.long	357913941
	.long	357913941
	.long	357913941
	.long	357913941
	.long	357913941
	.long	357913941
	.long	357913941
	.long	357913941
# exception:
# i:
	.long	0
	.long	1072693248
# index:
	.long	-1
# sign:
	.long	-1
# h_word:
	.long	1
	.long	0
	.long	0
	.long	0
	.long	0
	.long	0
	.long	0
	.long	0
# exception:
# i:
	.long	0
	.long	1072693248
# index:
	.long	0
# sign:
	.long	1
	.align 32
	.type	atan_blolo, @object
	.size	atan_blolo, 496
atan_blolo:
# i:
	.long	-1454912279
	.long	-1194211853
# i:
	.long	1014274118
	.long	-1196402365
# i:
	.long	645353979
	.long	956051242
# i:
	.long	-576445283
	.long	953437793
# i:
	.long	-1515043384
	.long	-1190724614
# i:
	.long	1741340261
	.long	-1193402728
# i:
	.long	1171337288
	.long	951942031
# i:
	.long	598554267
	.long	-1190882250
# i:
	.long	-155509321
	.long	-1191606906
# i:
	.long	-884121063
	.long	-1197749883
# i:
	.long	-1674017548
	.long	-1195114452
# i:
	.long	-1993320231
	.long	957402052
# i:
	.long	-16708683
	.long	-1191886709
# i:
	.long	-1249823368
	.long	-1190635761
# i:
	.long	2123788872
	.long	957701001
# i:
	.long	540143893
	.long	-1194519142
# i:
	.long	264488988
	.long	-1192699450
# i:
	.long	-2112228851
	.long	952151088
# i:
	.long	854444949
	.long	951280902
# i:
	.long	1496508354
	.long	-1191356496
# i:
	.long	-1851598570
	.long	952580135
# i:
	.long	-1631252116
	.long	-1188043251
# i:
	.long	1782287074
	.long	956541663
# i:
	.long	1907915836
	.long	-1198691839
# i:
	.long	-363149080
	.long	-1193184217
# i:
	.long	-143216635
	.long	955575634
# i:
	.long	1976741980
	.long	-1188668637
# i:
	.long	-1343573374
	.long	-1193654822
# i:
	.long	-1122577452
	.long	957542261
# i:
	.long	-385568734
	.long	957002711
# i:
	.long	1067402891
	.long	-1192335221
# i:
	.long	1906935843
	.long	-1188930058
# i:
	.long	1378607352
	.long	-1194556752
# i:
	.long	-2000983541
	.long	-1189957664
# i:
	.long	-2042561819
	.long	953474201
# i:
	.long	1080702011
	.long	-1191088186
# i:
	.long	309315404
	.long	956923980
# i:
	.long	-441412241
	.long	956633139
# i:
	.long	540741964
	.long	-1190081828
# i:
	.long	-109128853
	.long	955239111
# i:
	.long	-1256360012
	.long	-1188797248
# i:
	.long	759825374
	.long	957437939
# i:
	.long	325750238
	.long	-1188308695
# i:
	.long	56489651
	.long	957289748
# i:
	.long	433815099
	.long	-1188690196
# i:
	.long	-845040355
	.long	960172107
# i:
	.long	-125152756
	.long	959838977
# i:
	.long	423662669
	.long	-1189568815
# i:
	.long	953448779
	.long	-1189811982
# i:
	.long	1935154421
	.long	-1187123078
# i:
	.long	1920786700
	.long	-1187397073
# i:
	.long	652322832
	.long	-1192282158
# i:
	.long	1159028138
	.long	958022225
# i:
	.long	-1540552038
	.long	-1189974737
# i:
	.long	1039859621
	.long	-1187205237
# i:
	.long	-1448912847
	.long	957989232
# i:
	.long	-1370364749
	.long	-1188773197
# i:
	.long	233408791
	.long	-1193346179
# i:
	.long	448673595
	.long	-1189680071
# i:
	.long	1094036926
	.long	958159780
# i:
	.long	-686317984
	.long	-1190058350
# i:
	.long	-1127663789
	.long	959420085
	.comm	crlibm_second_step_taken,4,4
	.section	.rodata.cst8,"aM",@progbits,8
	.align 8
.LC0:
	.long	3167638333
	.long	1066008056
	.section	.text.__i686.get_pc_thunk.bx,"axG",@progbits,__i686.get_pc_thunk.bx,comdat
.globl __i686.get_pc_thunk.bx
	.hidden	__i686.get_pc_thunk.bx
	.type	__i686.get_pc_thunk.bx, @function
__i686.get_pc_thunk.bx:
.LFB11:
	.cfi_startproc
	movl	(%esp), %ebx	#,
	ret
	.cfi_endproc
.LFE11:
	.text
.Letext0:
	.section	.note.GNU-stack,"",@progbits
