	.file	"division_scs.c"
# GNU C (GCC) version 4.4.7 20120313 (Red Hat 4.4.7-11) (x86_64-redhat-linux)
#	compiled by GNU C version 4.4.7 20120313 (Red Hat 4.4.7-11), GMP version 4.3.1, MPFR version 2.4.1.
# GGC heuristics: --param ggc-min-expand=100 --param ggc-min-heapsize=131072
# options passed:  -I. -imultilib 32 -DLINUX_INLINE -DHAVE_CONFIG_H
# division_scs.c -m32 -mtune=generic -march=i686 -g -O1 -Wall -Wshadow
# -Wpointer-arith -Wcast-align -Wconversion -Waggregate-return
# -Wstrict-prototypes -Wnested-externs -Wlong-long -Winline -fverbose-asm
# options enabled:  -falign-loops -fargument-alias -fauto-inc-dec
# -fbranch-count-reg -fcommon -fcprop-registers -fdefer-pop
# -fdwarf2-cfi-asm -fearly-inlining -feliminate-unused-debug-types
# -ffunction-cse -fgcse-lm -fguess-branch-probability -fident
# -fif-conversion -fif-conversion2 -finline -finline-functions-called-once
# -fipa-pure-const -fipa-reference -fira-share-save-slots
# -fira-share-spill-slots -fivopts -fkeep-static-consts
# -fleading-underscore -fmath-errno -fmerge-constants -fmerge-debug-strings
# -fmove-loop-invariants -fpcc-struct-return -fpeephole -fsched-interblock
# -fsched-spec -fsched-stalled-insns-dep -fsigned-zeros
# -fsplit-ivs-in-unroller -fsplit-wide-types -ftoplevel-reorder
# -ftrapping-math -ftree-ccp -ftree-ch -ftree-coalesce-vars
# -ftree-copy-prop -ftree-copyrename -ftree-cselim -ftree-dce
# -ftree-dominator-opts -ftree-dse -ftree-fre -ftree-loop-im
# -ftree-loop-ivcanon -ftree-loop-optimize -ftree-parallelize-loops=
# -ftree-reassoc -ftree-scev-cprop -ftree-sink -ftree-sra
# -ftree-switch-conversion -ftree-ter -ftree-vect-loop-version
# -funit-at-a-time -fvar-tracking -fvar-tracking-assignments
# -fvect-cost-model -fverbose-asm -fzero-initialized-in-bss -m32 -m80387
# -m96bit-long-double -maccumulate-outgoing-args -malign-stringops
# -mfancy-math-387 -mfp-ret-in-387 -mfused-madd -mglibc -mieee-fp
# -mno-red-zone -mno-sse4 -mpush-args -msahf -mtls-direct-seg-refs

	.text
.Ltext0:
# Compiler executable checksum: c4107769ffcd19d44690c951fbc131c4

	.cfi_sections	.debug_frame
.globl scs_inv
	.type	scs_inv, @function
scs_inv:
.LFB0:
	.file 1 "division_scs.c"
	.loc 1 38 0
	.cfi_startproc
.LVL0:
	pushl	%ebp	#
	.cfi_def_cfa_offset 8
	.cfi_offset 5, -8
	movl	%esp, %ebp	#,
	.cfi_def_cfa_register 5
	pushl	%edi	#
	pushl	%esi	#
	pushl	%ebx	#
	subl	$236, %esp	#,
	movl	12(%ebp), %edi	# x, x
	.cfi_offset 3, -20
	.cfi_offset 6, -16
	.cfi_offset 7, -12
	.loc 1 42 0
	movl	%edi, 4(%esp)	# x,
	leal	-72(%ebp), %ebx	#, tmp60
	movl	%ebx, (%esp)	# tmp60,
	call	scs_set	#
	movl	$0, -32(%ebp)	#, <variable>.index
	movl	%ebx, 4(%esp)	# tmp60,
	leal	-224(%ebp), %eax	#, tmp62
	movl	%eax, (%esp)	# tmp62,
	call	scs_get_d	#
	.loc 1 44 0
	movl	$2, 4(%esp)	#,
	leal	-216(%ebp), %eax	#,
	movl	%eax, (%esp)	#,
	call	scs_set_si	#
.LVL1:
	.loc 1 48 0
	fld1
	fdivl	-224(%ebp)	# app_x
	fstpl	4(%esp)	#
	leal	-120(%ebp), %esi	#, tmp67
	movl	%esi, (%esp)	# tmp67,
	call	scs_set_d	#
.LVL2:
	.loc 1 49 0
	movl	40(%edi), %eax	# <variable>.index, <variable>.index
	subl	%eax, -80(%ebp)	# <variable>.index, <variable>.index
	.loc 1 52 0
	movl	%esi, 8(%esp)	# tmp67,
	movl	%edi, 4(%esp)	# x,
	leal	-168(%ebp), %ebx	#, tmp70
	movl	%ebx, (%esp)	# tmp70,
	call	scs_mul	#
	.loc 1 53 0
	movl	%ebx, 8(%esp)	# tmp70,
	leal	-216(%ebp), %eax	#,
	movl	%eax, 4(%esp)	#,
	movl	%ebx, (%esp)	# tmp70,
	call	scs_sub	#
	.loc 1 54 0
	movl	%ebx, 8(%esp)	# tmp70,
	movl	%esi, 4(%esp)	# tmp67,
	movl	%esi, (%esp)	# tmp67,
	call	scs_mul	#
	.loc 1 57 0
	movl	%esi, 8(%esp)	# tmp67,
	movl	%edi, 4(%esp)	# x,
	movl	%ebx, (%esp)	# tmp70,
	call	scs_mul	#
	.loc 1 58 0
	movl	%ebx, 8(%esp)	# tmp70,
	leal	-216(%ebp), %eax	#,
	movl	%eax, 4(%esp)	#,
	movl	%ebx, (%esp)	# tmp70,
	call	scs_sub	#
	.loc 1 59 0
	movl	%ebx, 8(%esp)	# tmp70,
	movl	%esi, 4(%esp)	# tmp67,
	movl	8(%ebp), %eax	# result, result
	movl	%eax, (%esp)	# result,
	call	scs_mul	#
	.loc 1 62 0
	addl	$236, %esp	#,
	popl	%ebx	#
	.cfi_restore 3
	popl	%esi	#
	.cfi_restore 6
	popl	%edi	#
	.cfi_restore 7
	popl	%ebp	#
	.cfi_restore 5
	.cfi_def_cfa 4, 4
	ret
	.cfi_endproc
.LFE0:
	.size	scs_inv, .-scs_inv
.globl scs_div
	.type	scs_div, @function
scs_div:
.LFB1:
	.loc 1 67 0
	.cfi_startproc
.LVL3:
	pushl	%ebp	#
	.cfi_def_cfa_offset 8
	.cfi_offset 5, -8
	movl	%esp, %ebp	#,
	.cfi_def_cfa_register 5
	subl	$88, %esp	#,
	movl	%ebx, -12(%ebp)	#,
	movl	%esi, -8(%ebp)	#,
	movl	%edi, -4(%ebp)	#,
	movl	8(%ebp), %edi	# result, result
	.cfi_offset 7, -12
	.cfi_offset 6, -16
	.cfi_offset 3, -20
	movl	12(%ebp), %ebx	# x, x
	movl	16(%ebp), %eax	# y, y
	.loc 1 70 0
	fldl	32(%ebx)	# <variable>.exception.d
	fld1
	fxch	%st(1)	#
	fucomi	%st(1), %st	#,
	fstp	%st(1)	#
	jp	.L11	#,
	je	.L9	#,
.L11:
	.loc 1 71 0
	fdivl	32(%eax)	# <variable>.exception.d
	fstpl	32(%edi)	# <variable>.exception.d
	.loc 1 72 0
	jmp	.L7	#
.L9:
	fstp	%st(0)	#
	.loc 1 75 0
	movl	%eax, 4(%esp)	# y,
	leal	-72(%ebp), %esi	#, tmp65
	movl	%esi, (%esp)	# tmp65,
	call	scs_inv	#
	.loc 1 76 0
	movl	%ebx, 8(%esp)	# x,
	movl	%esi, 4(%esp)	# tmp65,
	movl	%edi, (%esp)	# result,
	call	scs_mul	#
.L7:
	.loc 1 78 0
	movl	-12(%ebp), %ebx	#,
	movl	-8(%ebp), %esi	#,
	movl	-4(%ebp), %edi	#,
	movl	%ebp, %esp	#,
	.cfi_def_cfa_register 4
	.cfi_restore 7
	.cfi_restore 6
	.cfi_restore 3
	popl	%ebp	#
	.cfi_restore 5
	.cfi_def_cfa_offset 4
	ret
	.cfi_endproc
.LFE1:
	.size	scs_div, .-scs_div
.Letext0:
	.file 2 "scs.h"
	.file 3 "scs_private.h"
	.section	.note.GNU-stack,"",@progbits
