	.file	"log_fast.c"
# GNU C (GCC) version 4.4.7 20120313 (Red Hat 4.4.7-11) (x86_64-redhat-linux)
#	compiled by GNU C version 4.4.7 20120313 (Red Hat 4.4.7-11), GMP version 4.3.1, MPFR version 2.4.1.
# GGC heuristics: --param ggc-min-expand=100 --param ggc-min-heapsize=131072
# options passed:  -I. -imultilib 32 -DLINUX_INLINE -DHAVE_CONFIG_H
# log_fast.c -m32 -mtune=generic -march=i686 -g -O1 -Wall -Wshadow
# -Wpointer-arith -Wcast-align -Wconversion -Waggregate-return
# -Wstrict-prototypes -Wnested-externs -Wlong-long -Winline -pedantic
# -std=c99 -fPIC -fno-strict-aliasing -fverbose-asm
# options enabled:  -fPIC -falign-loops -fargument-alias -fauto-inc-dec
# -fbranch-count-reg -fcommon -fcprop-registers -fdefer-pop
# -fdwarf2-cfi-asm -fearly-inlining -feliminate-unused-debug-types
# -ffunction-cse -fgcse-lm -fguess-branch-probability -fident
# -fif-conversion -fif-conversion2 -finline -finline-functions-called-once
# -fipa-pure-const -fipa-reference -fira-share-save-slots
# -fira-share-spill-slots -fivopts -fkeep-static-consts
# -fleading-underscore -fmath-errno -fmerge-constants -fmerge-debug-strings
# -fmove-loop-invariants -fpcc-struct-return -fpeephole -fsched-interblock
# -fsched-spec -fsched-stalled-insns-dep -fsigned-zeros
# -fsplit-ivs-in-unroller -fsplit-wide-types -ftoplevel-reorder
# -ftrapping-math -ftree-ccp -ftree-ch -ftree-coalesce-vars
# -ftree-copy-prop -ftree-copyrename -ftree-cselim -ftree-dce
# -ftree-dominator-opts -ftree-dse -ftree-fre -ftree-loop-im
# -ftree-loop-ivcanon -ftree-loop-optimize -ftree-parallelize-loops=
# -ftree-reassoc -ftree-scev-cprop -ftree-sink -ftree-sra
# -ftree-switch-conversion -ftree-ter -ftree-vect-loop-version
# -funit-at-a-time -fvar-tracking -fvar-tracking-assignments
# -fvect-cost-model -fverbose-asm -fzero-initialized-in-bss -m32 -m80387
# -m96bit-long-double -maccumulate-outgoing-args -malign-stringops
# -mfancy-math-387 -mfp-ret-in-387 -mfused-madd -mglibc -mieee-fp
# -mno-red-zone -mno-sse4 -mpush-args -msahf -mtls-direct-seg-refs

	.text
.Ltext0:
# Compiler executable checksum: c4107769ffcd19d44690c951fbc131c4

	.cfi_sections	.debug_frame
	.type	log_quick, @function
log_quick:
.LFB7:
	.file 1 "log_fast.c"
	.loc 1 74 0
	.cfi_startproc
.LVL0:
	pushl	%ebp	#
	.cfi_def_cfa_offset 8
	.cfi_offset 5, -8
	movl	%esp, %ebp	#,
	.cfi_def_cfa_register 5
	pushl	%edi	#
	pushl	%esi	#
	pushl	%ebx	#
	subl	$52, %esp	#,
	.cfi_offset 3, -20
	.cfi_offset 6, -16
	.cfi_offset 7, -12
	call	__i686.get_pc_thunk.bx	#
	addl	$_GLOBAL_OFFSET_TABLE_, %ebx	#,
	movl	%eax, -44(%ebp)	# pres_hi, %sfp
	movl	12(%ebp), %eax	# py, py
.LVL1:
	movl	16(%ebp), %edi	# E, E
	.loc 1 79 0
	movl	%edi, -20(%ebp)	# E,
	fildl	-20(%ebp)	#
.LVL2:
	movl	%edi, %ecx	# E, tmp156
	sarl	$31, %ecx	#, tmp156
	xorl	%ecx, %edi	# tmp156, E.73
	subl	%ecx, %edi	# tmp156, E.73
.LVL3:
	.loc 1 83 0
	movzwl	6(%eax), %esi	# <variable>.i, tmp157
	andl	$31, %esi	#, tmp159
	subl	$6, %esi	#, i.58
.LVL4:
	.loc 1 84 0
	cmpl	$9, %esi	#, i.58
	jg	.L2	#,
	.loc 1 85 0
	sarl	%esi	# i
.LVL5:
	jmp	.L3	#
.L2:
	.loc 1 87 0
	subl	$1, %esi	#, D.1913
.LVL6:
	sarl	%esi	# i
.LVL7:
.L3:
	.loc 1 89 0
	fldl	(%eax)	# <variable>.d
.LVL8:
	movl	middle@GOT(%ebx), %eax	#, tmp160
	fsubl	(%eax,%esi,8)	# <variable>.d
.LVL9:
.LBB2:
	.loc 1 93 0
	movl	ln2hi@GOT(%ebx), %eax	#, tmp162
	fld	%st(1)	#
.LVL10:
	fmull	(%eax)	# ln2hi.d
	fxch	%st(2)	#
.LVL11:
	movl	ln2lo@GOT(%ebx), %eax	#, tmp163
	fmull	(%eax)	# ln2lo.d
.LVL12:
	fld	%st(2)	#
.LVL13:
	fadd	%st(1), %st	#,
.LVL14:
	fsub	%st, %st(3)	#,
.LVL15:
	fxch	%st(1)	#
.LVL16:
	fsubp	%st, %st(3)	#,
.LVL17:
.LBE2:
	.loc 1 97 0
	movl	Poly_h@GOT(%ebx), %ecx	#, tmp165
	imull	$104, %esi, %eax	#, i, tmp166
	fldl	96(%ecx,%eax)	# <variable>.d
.LVL18:
	leal	88(%ecx,%eax), %ecx	#, ivtmp.54
.LVL19:
	movl	$11, %eax	#, k
.LVL20:
.L4:
	.loc 1 100 0
	fmul	%st(2), %st	#,
.LVL21:
	.loc 1 101 0
	faddl	(%ecx)	# <variable>.d
.LVL22:
	.loc 1 99 0
	subl	$1, %eax	#, k
.LVL23:
	subl	$8, %ecx	#, ivtmp.54
	cmpl	$1, %eax	#, k
	jne	.L4	#,
	.loc 1 104 0
	movl	%edi, -20(%ebp)	# E.73,
	fildl	-20(%ebp)	#
.LVL24:
	flds	.LC0@GOTOFF(%ebx)	#
	fucomip	%st(1), %st	#,
	jb	.L16	#,
	.loc 1 106 0
	testl	%edi, %edi	# E.73
	jne	.L7	#,
	fstp	%st(0)	#
	fstp	%st(3)	#
	fstp	%st(0)	#
	fxch	%st(1)	#
	.loc 1 107 0
	movl	8(%ebp), %eax	# prndcstindex,
.LVL25:
	movl	$0, (%eax)	#,
.LVL26:
.LBB3:
	.loc 1 109 0
	fldl	.LC1@GOTOFF(%ebx)	#
.LVL27:
	fld	%st(1)	#
	fmul	%st(1), %st	#,
.LVL28:
	fld	%st(3)	#
.LVL29:
	fmul	%st(2), %st	#,
.LVL30:
	fld	%st(3)	#
.LVL31:
	fsub	%st(2), %st	#,
	faddp	%st, %st(2)	#,
.LVL32:
	fld	%st(4)	#
	fsub	%st(1), %st	#,
	faddp	%st, %st(1)	#,
.LVL33:
	fld	%st(3)	#
.LVL34:
	fsub	%st(2), %st	#,
	fstpl	-40(%ebp)	# %sfp
.LVL35:
	fld	%st(4)	#
.LVL36:
	fsub	%st(1), %st	#,
	fxch	%st(4)	#
.LVL37:
	fmul	%st(5), %st	#,
.LVL38:
.LBE3:
.LBB4:
	.loc 1 110 0
	movl	Poly_h@GOT(%ebx), %edi	#, tmp179
.LVL39:
	leal	(%esi,%esi), %ecx	#, tmp181
	leal	(%ecx,%esi), %eax	#, tmp182
	leal	1(%esi,%eax,4), %eax	#, tmp185
	fldl	(%edi,%eax,8)	# <variable>.d
.LVL40:
	fld	%st(1)	#
	fadd	%st(1), %st	#,
	fstpl	-32(%ebp)	# %sfp
.LVL41:
.LBE4:
.LBB5:
	fld	%st(3)	#
.LVL42:
	fmul	%st(3), %st	#,
	fsub	%st(2), %st	#,
	fxch	%st(4)	#
	fmul	%st(6), %st	#,
	faddp	%st, %st(4)	#,
	fldl	-40(%ebp)	# %sfp
	fmul	%st(3), %st	#,
	faddp	%st, %st(4)	#,
	fldl	-40(%ebp)	# %sfp
	fmul	%st(6), %st	#,
	faddp	%st, %st(4)	#,
.LBE5:
.LBB6:
	fsubl	-32(%ebp)	# %sfp
	faddp	%st, %st(1)	#,
	faddp	%st, %st(2)	#,
	fxch	%st(1)	#
	movl	Poly_l@GOT(%ebx), %eax	#, tmp197
	faddl	8(%eax,%ecx,8)	# <variable>.d
	fstpl	-40(%ebp)	# %sfp
.LVL43:
	fldl	-32(%ebp)	# %sfp
.LVL44:
	faddl	-40(%ebp)	# %sfp
.LVL45:
.LBE6:
.LBB7:
	.loc 1 111 0
	fmul	%st, %st(2)	#,
.LVL46:
	fld	%st(0)	#
	fsub	%st(3), %st	#,
.LVL47:
	faddp	%st, %st(3)	#,
.LVL48:
	fld	%st(0)	#
	fsub	%st(3), %st	#,
.LVL49:
	fld	%st(5)	#
.LVL50:
	fmul	%st(2), %st	#,
.LVL51:
	fld	%st(3)	#
.LVL52:
	fmul	%st(5), %st	#,
	fsub	%st(1), %st	#,
	fxch	%st(5)	#
	fmul	%st(6), %st	#,
	faddp	%st, %st(5)	#,
	fxch	%st(3)	#
	fmul	%st(1), %st	#,
	faddp	%st, %st(4)	#,
.LVL53:
	fmulp	%st, %st(4)	#,
	fxch	%st(2)	#
.LVL54:
	faddp	%st, %st(3)	#,
.LVL55:
	fld	%st(1)	#
	fmuls	.LC2@GOTOFF(%ebx)	#
	fxch	%st(2)	#
.LVL56:
.LBE7:
.LBB8:
	fsubrl	-32(%ebp)	# %sfp
	faddl	-40(%ebp)	# %sfp
.LBE8:
.LBB9:
	fmulp	%st, %st(4)	#,
	fxch	%st(1)	#
.LVL57:
	faddp	%st, %st(3)	#,
	fxch	%st(2)	#
	faddp	%st, %st(1)	#,
.LVL58:
	fld	%st(1)	#
.LVL59:
	fadd	%st(1), %st	#,
.LVL60:
.LBE9:
.LBB10:
	.loc 1 112 0
	imull	$104, %esi, %ecx	#, i, tmp217
	fldl	(%ecx,%edi)	# <variable>.d
.LVL61:
	fld	%st(1)	#
	fadd	%st(1), %st	#,
.LVL62:
	fxch	%st(4)	#
.LVL63:
.LBE10:
.LBB11:
	fsub	%st(2), %st	#,
.LVL64:
	faddp	%st, %st(3)	#,
.LBE11:
.LBB12:
	fsub	%st(3), %st	#,
	faddp	%st, %st(1)	#,
	faddp	%st, %st(1)	#,
	sall	$4, %esi	#, tmp224
.LVL65:
	faddl	(%esi,%eax)	# <variable>.d
.LVL66:
	fld	%st(1)	#
.LVL67:
	fadd	%st(1), %st	#,
	movl	-44(%ebp), %eax	# %sfp,
	fstl	(%eax)	#
	fsubrp	%st, %st(2)	#,
	faddp	%st, %st(1)	#,
	fstpl	(%edx)	#* pres_lo
	jmp	.L12	#
.LVL68:
.L7:
.LBE12:
	.loc 1 116 0
	flds	.LC3@GOTOFF(%ebx)	#
	fxch	%st(1)	#
	.loc 1 119 0
	fucomip	%st(1), %st	#,
	fstp	%st(0)	#
	seta	%al	#, tmp294
.LVL69:
	movzbl	%al, %eax	# tmp294, tmp293
	addl	$1, %eax	#, tmp293
	movl	8(%ebp), %ecx	# prndcstindex,
	movl	%eax, (%ecx)	# tmp293,
.LVL70:
.LBB13:
	.loc 1 121 0
	movl	Poly_h@GOT(%ebx), %edi	#, tmp229
	leal	(%esi,%esi), %ecx	#, tmp231
	leal	(%ecx,%esi), %eax	#, tmp232
	leal	1(%esi,%eax,4), %eax	#, tmp235
	fldl	(%edi,%eax,8)	# <variable>.d
.LVL71:
	fstl	-64(%ebp)	# %sfp
	fxch	%st(1)	#
.LVL72:
.LBE13:
	fmul	%st(3), %st	#,
.LBB14:
	movl	Poly_l@GOT(%ebx), %eax	#, tmp237
.LVL73:
	faddl	8(%eax,%ecx,8)	# <variable>.d
	fstpl	-56(%ebp)	# %sfp
.LVL74:
	faddl	-56(%ebp)	# %sfp
.LVL75:
.LBE14:
.LBB15:
	.loc 1 122 0
	fldl	.LC1@GOTOFF(%ebx)	#
.LVL76:
	fld	%st(1)	#
	fmul	%st(1), %st	#,
	fxch	%st(1)	#
.LVL77:
	fmul	%st(4), %st	#,
.LVL78:
	fld	%st(2)	#
.LVL79:
	fsub	%st(2), %st	#,
	faddp	%st, %st(2)	#,
.LVL80:
	fld	%st(4)	#
	fsub	%st(1), %st	#,
	faddp	%st, %st(1)	#,
.LVL81:
	fld	%st(2)	#
.LVL82:
	fsub	%st(2), %st	#,
	fstpl	-40(%ebp)	# %sfp
.LVL83:
	fld	%st(4)	#
.LVL84:
	fsub	%st(1), %st	#,
	fstpl	-32(%ebp)	# %sfp
.LVL85:
	fld	%st(4)	#
.LVL86:
	fmul	%st(3), %st	#,
.LVL87:
	fld	%st(2)	#
.LVL88:
	fmul	%st(2), %st	#,
	fsub	%st(1), %st	#,
	fxch	%st(3)	#
	fmull	-32(%ebp)	# %sfp
	faddp	%st, %st(3)	#,
	fxch	%st(1)	#
	fmull	-40(%ebp)	# %sfp
	faddp	%st, %st(2)	#,
	fldl	-40(%ebp)	# %sfp
	fmull	-32(%ebp)	# %sfp
	faddp	%st, %st(2)	#,
.LVL89:
	fld	%st(2)	#
	fmuls	.LC2@GOTOFF(%ebx)	#
	fxch	%st(3)	#
.LBE15:
.LBB16:
	fsubl	-64(%ebp)	# %sfp
	fsubrl	-56(%ebp)	# %sfp
.LBE16:
.LBB17:
	fmulp	%st, %st(5)	#,
	fxch	%st(2)	#
	faddp	%st, %st(4)	#,
	faddp	%st, %st(3)	#,
.LVL90:
	fld	%st(0)	#
	fadd	%st(3), %st	#,
.LVL91:
.LBE17:
.LBB18:
	.loc 1 123 0
	imull	$104, %esi, %ecx	#, i, tmp259
	fldl	(%ecx,%edi)	# <variable>.d
.LVL92:
	fld	%st(1)	#
	fadd	%st(1), %st	#,
	fxch	%st(3)	#
.LVL93:
.LBE18:
.LBB19:
	fsub	%st(2), %st	#,
.LVL94:
	faddp	%st, %st(5)	#,
.LBE19:
.LBB20:
	fsub	%st(2), %st	#,
	faddp	%st, %st(1)	#,
	faddp	%st, %st(3)	#,
	fxch	%st(2)	#
.LVL95:
	sall	$4, %esi	#, tmp266
.LVL96:
	faddl	(%esi,%eax)	# <variable>.d
.LVL97:
	fld	%st(2)	#
.LVL98:
	fadd	%st(1), %st	#,
.LVL99:
.LBE20:
.LBB21:
	.loc 1 126 0
	fld	%st(2)	#
.LVL100:
	fadd	%st(1), %st	#,
.LVL101:
	fxch	%st(4)	#
.LVL102:
.LBE21:
.LBB22:
	fsub	%st(1), %st	#,
.LVL103:
	faddp	%st, %st(2)	#,
	fxch	%st(2)	#
.LBE22:
.LBB23:
	fsub	%st(3), %st	#,
	faddp	%st, %st(2)	#,
	faddp	%st, %st(1)	#,
	faddp	%st, %st(2)	#,
.LVL104:
	fld	%st(0)	#
	fadd	%st(2), %st	#,
	movl	-44(%ebp), %eax	# %sfp,
	fstl	(%eax)	#
	fsubrp	%st, %st(1)	#,
.LVL105:
	faddp	%st, %st(1)	#,
	fstpl	(%edx)	#* pres_lo
	jmp	.L12	#
.LVL106:
.L16:
	fstp	%st(0)	#
.LBE23:
	.loc 1 131 0
	movl	8(%ebp), %ecx	# prndcstindex,
	movl	$3, (%ecx)	#,
	.loc 1 132 0
	movl	Poly_h@GOT(%ebx), %eax	#, tmp274
.LVL107:
	leal	(%esi,%esi,2), %ecx	#, tmp277
	leal	1(%esi,%ecx,4), %ecx	#, tmp280
	fmul	%st(2), %st	#,
	faddl	(%eax,%ecx,8)	# <variable>.d
.LVL108:
.LBB24:
	.loc 1 134 0
	imull	$104, %esi, %ecx	#, i, tmp283
	fldl	(%ecx,%eax)	# <variable>.d
.LVL109:
	fld	%st(2)	#
	fadd	%st(1), %st	#,
.LVL110:
.LBE24:
.LBB25:
	.loc 1 135 0
	sall	$4, %esi	#, tmp285
.LVL111:
.LBE25:
.LBB26:
	fsub	%st, %st(3)	#,
.LVL112:
	fxch	%st(1)	#
.LVL113:
	fsubp	%st, %st(3)	#,
.LVL114:
	fxch	%st(4)	#
.LBE26:
.LBB27:
	faddp	%st, %st(2)	#,
.LVL115:
	fxch	%st(1)	#
	movl	Poly_l@GOT(%ebx), %eax	#, tmp284
.LVL116:
	faddl	(%esi,%eax)	# <variable>.d
	fxch	%st(2)	#
.LBE27:
	fmulp	%st, %st(1)	#,
.LBB28:
	faddp	%st, %st(1)	#,
.LVL117:
	fld	%st(1)	#
.LVL118:
	fadd	%st(1), %st	#,
	movl	-44(%ebp), %eax	# %sfp,
	fstl	(%eax)	#
.LVL119:
	fsubp	%st, %st(2)	#,
.LVL120:
	fsubp	%st, %st(1)	#,
	fstpl	(%edx)	#* pres_lo
.LVL121:
.L12:
.LBE28:
	.loc 1 142 0
	addl	$52, %esp	#,
	popl	%ebx	#
	.cfi_restore 3
	popl	%esi	#
	.cfi_restore 6
	popl	%edi	#
	.cfi_restore 7
	popl	%ebp	#
	.cfi_restore 5
	.cfi_def_cfa 4, 4
	ret
	.cfi_endproc
.LFE7:
	.size	log_quick, .-log_quick
.globl log_ru
	.type	log_ru, @function
log_ru:
.LFB10:
	.loc 1 299 0
	.cfi_startproc
.LVL122:
	pushl	%ebp	#
	.cfi_def_cfa_offset 8
	.cfi_offset 5, -8
	movl	%esp, %ebp	#,
	.cfi_def_cfa_register 5
	pushl	%esi	#
	pushl	%ebx	#
	addl	$-128, %esp	#,
	.cfi_offset 3, -16
	.cfi_offset 6, -12
	call	__i686.get_pc_thunk.bx	#
	addl	$_GLOBAL_OFFSET_TABLE_, %ebx	#,
	fldl	8(%ebp)	# x
.LVL123:
	.loc 1 306 0
	fstl	-16(%ebp)	# y.d
	.loc 1 309 0
	movl	-12(%ebp), %eax	# y.i, D.2129
	movl	$0, %edx	#, E
	cmpl	$1048575, %eax	#, D.2129
	jg	.L19	#,
	.loc 1 310 0
	testl	$2147483647, %eax	#, D.2129
	jne	.L20	#,
	cmpl	$0, -16(%ebp)	#, y.i
	jne	.L20	#,
	fstp	%st(0)	#
	.loc 1 312 0
	fldl	NInf@GOTOFF(%ebx)	# NInf.d
	jmp	.L21	#
.L20:
	.loc 1 314 0
	testl	%eax, %eax	# D.2129
	jns	.L22	#,
	fstp	%st(0)	#
	.loc 1 316 0
	fldl	NaN@GOTOFF(%ebx)	# NaN.d
	jmp	.L21	#
.L22:
.LVL124:
	.loc 1 320 0
	movl	two52@GOT(%ebx), %eax	#, tmp72
	fld	%st(0)	#
	fmull	(%eax)	# two52.d
	fstpl	-16(%ebp)	# y.d
	movl	$-52, %edx	#, E
.LVL125:
.L19:
	.loc 1 323 0
	movl	-12(%ebp), %eax	# y.i, temp.88
	cmpl	$2146435071, %eax	#, temp.88
	jle	.L23	#,
	.loc 1 324 0
	fadd	%st(0), %st	#,
	jmp	.L21	#
.L23:
	fstp	%st(0)	#
	.loc 1 327 0
	movl	%eax, %ecx	# temp.88, tmp74
	sarl	$20, %ecx	#, tmp74
	leal	-1023(%edx,%ecx), %esi	#, E.87
.LVL126:
	.loc 1 328 0
	andl	$1048575, %eax	#, tmp76
	orl	$1072693248, %eax	#, tmp77
	movl	%eax, -12(%ebp)	# tmp77, y.i
	.loc 1 329 0
	fldl	-16(%ebp)	# y.d
	fldl	.LC4@GOTOFF(%ebx)	#
	fxch	%st(1)	#
	fucomi	%st(1), %st	#,
	fstp	%st(1)	#
	jbe	.L35	#,
	.loc 1 330 0
	fmuls	.LC5@GOTOFF(%ebx)	#
	fstpl	-16(%ebp)	# y.d
	.loc 1 331 0
	addl	$1, %esi	#, E.87
.LVL127:
	jmp	.L24	#
.L35:
	fstp	%st(0)	#
.L24:
	.loc 1 334 0
	leal	-32(%ebp), %edx	#, tmp82
	leal	-24(%ebp), %eax	#, tmp83
	movl	%esi, 8(%esp)	# E.87,
	leal	-16(%ebp), %ecx	#, tmp84
	movl	%ecx, 4(%esp)	# tmp84,
	leal	-36(%ebp), %ecx	#, tmp85
	movl	%ecx, (%esp)	# tmp85,
	call	log_quick	#
.LVL128:
	.loc 1 339 0
	fldl	-24(%ebp)	# res_hi
	fstpl	-120(%ebp)	# %sfp
.LVL129:
	.loc 1 340 0
	fldl	-32(%ebp)	# res_lo
	fstpl	-104(%ebp)	# %sfp
	.loc 1 344 0
	movl	$0, -96(%ebp)	#, %sfp
	movl	-116(%ebp), %eax	# %sfp,
	andl	$2146435072, %eax	#,
	movl	%eax, -92(%ebp)	#, %sfp
	movl	-96(%ebp), %eax	# %sfp,
	movl	-92(%ebp), %edx	# %sfp,
	addl	$0, %eax	#,
	adcl	$1048576, %edx	#,
	movl	%eax, -112(%ebp)	#, %sfp
	movl	%edx, -108(%ebp)	#, %sfp
	.loc 1 347 0
	movl	-36(%ebp), %edx	# rndcstindex, rndcstindex
	movl	delta@GOT(%ebx), %eax	#, tmp87
	fldl	-112(%ebp)	# %sfp
	fmull	(%eax,%edx,8)	# delta
	.loc 1 343 0
	movl	-104(%ebp), %edx	# %sfp,
	movl	%edx, -96(%ebp)	#, %sfp
	movl	-100(%ebp), %eax	# %sfp,
	andl	$2147483647, %eax	#,
	movl	%eax, -92(%ebp)	#, %sfp
	.loc 1 347 0
	fldl	-96(%ebp)	# %sfp
	fucomip	%st(1), %st	#,
	fstp	%st(0)	#
	jbe	.L34	#,
	.loc 1 348 0
	fldz
	fldl	-104(%ebp)	# %sfp
	fucomip	%st(1), %st	#,
	fstp	%st(0)	#
	jbe	.L28	#,
	movl	-112(%ebp), %eax	# %sfp,
	movl	-108(%ebp), %edx	# %sfp,
	addl	$0, %eax	#,
	adcl	$-55574528, %edx	#,
	movl	%eax, -112(%ebp)	#, %sfp
	movl	%edx, -108(%ebp)	#, %sfp
	fldl	-120(%ebp)	# %sfp
	faddl	-112(%ebp)	# %sfp
	fstpl	-24(%ebp)	# res_hi
.L28:
	.loc 1 349 0
	fldl	-24(%ebp)	# res_hi
	jmp	.L21	#
.L34:
.LBB30:
	.loc 1 355 0
	movl	%esi, 12(%esp)	# E.87,
	movl	-16(%ebp), %eax	# y, y
	movl	-12(%ebp), %edx	# y, y
	movl	%eax, 4(%esp)	# y,
	movl	%edx, 8(%esp)	# y,
	leal	-84(%ebp), %esi	#, tmp98
.LVL130:
	movl	%esi, (%esp)	# tmp98,
	call	scs_log@PLT	#
.LVL131:
	.loc 1 356 0
	movl	%esi, 4(%esp)	# tmp98,
	leal	-24(%ebp), %eax	#, tmp100
	movl	%eax, (%esp)	# tmp100,
	call	scs_get_d_pinf@PLT	#
	.loc 1 357 0
	fldl	-24(%ebp)	# res_hi
.L21:
.LBE30:
	.loc 1 359 0
	subl	$-128, %esp	#,
	popl	%ebx	#
	.cfi_restore 3
	popl	%esi	#
	.cfi_restore 6
	popl	%ebp	#
	.cfi_restore 5
	.cfi_def_cfa 4, 4
	ret
	.cfi_endproc
.LFE10:
	.size	log_ru, .-log_ru
.globl log_rd
	.type	log_rd, @function
log_rd:
.LFB9:
	.loc 1 225 0
	.cfi_startproc
.LVL132:
	pushl	%ebp	#
	.cfi_def_cfa_offset 8
	.cfi_offset 5, -8
	movl	%esp, %ebp	#,
	.cfi_def_cfa_register 5
	pushl	%esi	#
	pushl	%ebx	#
	addl	$-128, %esp	#,
	.cfi_offset 3, -16
	.cfi_offset 6, -12
	call	__i686.get_pc_thunk.bx	#
	addl	$_GLOBAL_OFFSET_TABLE_, %ebx	#,
	fldl	8(%ebp)	# x
.LVL133:
	.loc 1 232 0
	fstl	-16(%ebp)	# y.d
	.loc 1 235 0
	movl	-12(%ebp), %eax	# y.i, D.2069
	movl	$0, %edx	#, E
	cmpl	$1048575, %eax	#, D.2069
	jg	.L38	#,
	.loc 1 236 0
	testl	$2147483647, %eax	#, D.2069
	jne	.L39	#,
	cmpl	$0, -16(%ebp)	#, y.i
	jne	.L39	#,
	fstp	%st(0)	#
	.loc 1 238 0
	fldl	NInf@GOTOFF(%ebx)	# NInf.d
	jmp	.L40	#
.L39:
	.loc 1 240 0
	testl	%eax, %eax	# D.2069
	jns	.L41	#,
	fstp	%st(0)	#
	.loc 1 242 0
	fldl	NaN@GOTOFF(%ebx)	# NaN.d
	jmp	.L40	#
.L41:
.LVL134:
	.loc 1 246 0
	movl	two52@GOT(%ebx), %eax	#, tmp72
	fld	%st(0)	#
	fmull	(%eax)	# two52.d
	fstpl	-16(%ebp)	# y.d
	movl	$-52, %edx	#, E
.LVL135:
.L38:
	.loc 1 249 0
	movl	-12(%ebp), %eax	# y.i, temp.106
	cmpl	$2146435071, %eax	#, temp.106
	jle	.L42	#,
	.loc 1 250 0
	fadd	%st(0), %st	#,
	jmp	.L40	#
.L42:
	fstp	%st(0)	#
	.loc 1 254 0
	movl	%eax, %ecx	# temp.106, tmp74
	sarl	$20, %ecx	#, tmp74
	leal	-1023(%edx,%ecx), %esi	#, E.105
.LVL136:
	.loc 1 255 0
	andl	$1048575, %eax	#, tmp76
	orl	$1072693248, %eax	#, tmp77
	movl	%eax, -12(%ebp)	# tmp77, y.i
	.loc 1 256 0
	fldl	-16(%ebp)	# y.d
	fldl	.LC4@GOTOFF(%ebx)	#
	fxch	%st(1)	#
	fucomi	%st(1), %st	#,
	fstp	%st(1)	#
	jbe	.L54	#,
	.loc 1 257 0
	fmuls	.LC5@GOTOFF(%ebx)	#
	fstpl	-16(%ebp)	# y.d
	.loc 1 258 0
	addl	$1, %esi	#, E.105
.LVL137:
	jmp	.L43	#
.L54:
	fstp	%st(0)	#
.L43:
	.loc 1 261 0
	leal	-32(%ebp), %edx	#, tmp82
	leal	-24(%ebp), %eax	#, tmp83
	movl	%esi, 8(%esp)	# E.105,
	leal	-16(%ebp), %ecx	#, tmp84
	movl	%ecx, 4(%esp)	# tmp84,
	leal	-36(%ebp), %ecx	#, tmp85
	movl	%ecx, (%esp)	# tmp85,
	call	log_quick	#
.LVL138:
	.loc 1 265 0
	fldl	-24(%ebp)	# res_hi
	fstpl	-120(%ebp)	# %sfp
.LVL139:
	.loc 1 266 0
	fldl	-32(%ebp)	# res_lo
	fstpl	-104(%ebp)	# %sfp
	.loc 1 270 0
	movl	$0, -96(%ebp)	#, %sfp
	movl	-116(%ebp), %eax	# %sfp,
	andl	$2146435072, %eax	#,
	movl	%eax, -92(%ebp)	#, %sfp
	movl	-96(%ebp), %eax	# %sfp,
	movl	-92(%ebp), %edx	# %sfp,
	addl	$0, %eax	#,
	adcl	$1048576, %edx	#,
	movl	%eax, -112(%ebp)	#, %sfp
	movl	%edx, -108(%ebp)	#, %sfp
	.loc 1 273 0
	movl	-36(%ebp), %edx	# rndcstindex, rndcstindex
	movl	delta@GOT(%ebx), %eax	#, tmp87
	fldl	-112(%ebp)	# %sfp
	fmull	(%eax,%edx,8)	# delta
	.loc 1 269 0
	movl	-104(%ebp), %edx	# %sfp,
	movl	%edx, -96(%ebp)	#, %sfp
	movl	-100(%ebp), %eax	# %sfp,
	andl	$2147483647, %eax	#,
	movl	%eax, -92(%ebp)	#, %sfp
	.loc 1 273 0
	fldl	-96(%ebp)	# %sfp
	fucomip	%st(1), %st	#,
	fstp	%st(0)	#
	jbe	.L53	#,
	.loc 1 274 0
	fldz
	fldl	-104(%ebp)	# %sfp
	fxch	%st(1)	#
	fucomip	%st(1), %st	#,
	fstp	%st(0)	#
	jbe	.L47	#,
	.loc 1 275 0
	movl	-112(%ebp), %eax	# %sfp,
	movl	-108(%ebp), %edx	# %sfp,
	addl	$0, %eax	#,
	adcl	$-55574528, %edx	#,
	movl	%eax, -112(%ebp)	#, %sfp
	movl	%edx, -108(%ebp)	#, %sfp
	fldl	-120(%ebp)	# %sfp
	fsubl	-112(%ebp)	# %sfp
	fstpl	-24(%ebp)	# res_hi
.L47:
	.loc 1 276 0
	fldl	-24(%ebp)	# res_hi
	jmp	.L40	#
.L53:
.LBB32:
	.loc 1 282 0
	movl	%esi, 12(%esp)	# E.105,
	movl	-16(%ebp), %eax	# y, y
	movl	-12(%ebp), %edx	# y, y
	movl	%eax, 4(%esp)	# y,
	movl	%edx, 8(%esp)	# y,
	leal	-84(%ebp), %esi	#, tmp98
.LVL140:
	movl	%esi, (%esp)	# tmp98,
	call	scs_log@PLT	#
.LVL141:
	.loc 1 283 0
	movl	%esi, 4(%esp)	# tmp98,
	leal	-24(%ebp), %eax	#, tmp100
	movl	%eax, (%esp)	# tmp100,
	call	scs_get_d_minf@PLT	#
	.loc 1 284 0
	fldl	-24(%ebp)	# res_hi
.L40:
.LBE32:
	.loc 1 286 0
	subl	$-128, %esp	#,
	popl	%ebx	#
	.cfi_restore 3
	popl	%esi	#
	.cfi_restore 6
	popl	%ebp	#
	.cfi_restore 5
	.cfi_def_cfa 4, 4
	ret
	.cfi_endproc
.LFE9:
	.size	log_rd, .-log_rd
.globl log_rz
	.type	log_rz, @function
log_rz:
.LFB11:
	.loc 1 370 0
	.cfi_startproc
.LVL142:
	pushl	%ebp	#
	.cfi_def_cfa_offset 8
	.cfi_offset 5, -8
	movl	%esp, %ebp	#,
	.cfi_def_cfa_register 5
	pushl	%ebx	#
	subl	$20, %esp	#,
	.cfi_offset 3, -12
	call	__i686.get_pc_thunk.bx	#
	addl	$_GLOBAL_OFFSET_TABLE_, %ebx	#,
	fldl	8(%ebp)	# x
	.loc 1 371 0
	fld1
	fxch	%st(1)	#
	fucomi	%st(1), %st	#,
	fstp	%st(1)	#
	jbe	.L61	#,
	.loc 1 372 0
	fstpl	(%esp)	#
	call	log_rd@PLT	#
	jmp	.L58	#
.L61:
	.loc 1 374 0
	fstpl	(%esp)	#
	call	log_ru@PLT	#
.L58:
	.loc 1 375 0
	addl	$20, %esp	#,
	popl	%ebx	#
	.cfi_restore 3
	popl	%ebp	#
	.cfi_restore 5
	.cfi_def_cfa 4, 4
	ret
	.cfi_endproc
.LFE11:
	.size	log_rz, .-log_rz
.globl log_rn
	.type	log_rn, @function
log_rn:
.LFB8:
	.loc 1 153 0
	.cfi_startproc
.LVL143:
	pushl	%ebp	#
	.cfi_def_cfa_offset 8
	.cfi_offset 5, -8
	movl	%esp, %ebp	#,
	.cfi_def_cfa_register 5
	pushl	%esi	#
	pushl	%ebx	#
	subl	$96, %esp	#,
	.cfi_offset 3, -16
	.cfi_offset 6, -12
	call	__i686.get_pc_thunk.bx	#
	addl	$_GLOBAL_OFFSET_TABLE_, %ebx	#,
	fldl	8(%ebp)	# x
.LVL144:
	.loc 1 159 0
	fstl	-16(%ebp)	# y.d
	.loc 1 162 0
	movl	-12(%ebp), %eax	# y.i, D.2024
	movl	$0, %edx	#, E
	cmpl	$1048575, %eax	#, D.2024
	jg	.L64	#,
	.loc 1 163 0
	testl	$2147483647, %eax	#, D.2024
	jne	.L65	#,
	cmpl	$0, -16(%ebp)	#, y.i
	jne	.L65	#,
	fstp	%st(0)	#
	.loc 1 165 0
	fldl	NInf@GOTOFF(%ebx)	# NInf.d
	jmp	.L66	#
.L65:
	.loc 1 167 0
	testl	%eax, %eax	# D.2024
	jns	.L67	#,
	fstp	%st(0)	#
	.loc 1 169 0
	fldl	NaN@GOTOFF(%ebx)	# NaN.d
	jmp	.L66	#
.L67:
.LVL145:
	.loc 1 173 0
	movl	two52@GOT(%ebx), %eax	#, tmp69
	fld	%st(0)	#
	fmull	(%eax)	# two52.d
	fstpl	-16(%ebp)	# y.d
	movl	$-52, %edx	#, E
.LVL146:
.L64:
	.loc 1 176 0
	movl	-12(%ebp), %eax	# y.i, temp.133
	cmpl	$2146435071, %eax	#, temp.133
	jle	.L68	#,
	.loc 1 177 0
	fadd	%st(0), %st	#,
	jmp	.L66	#
.L68:
	fstp	%st(0)	#
	.loc 1 181 0
	movl	%eax, %ecx	# temp.133, tmp71
	sarl	$20, %ecx	#, tmp71
	leal	-1023(%edx,%ecx), %esi	#, E.132
.LVL147:
	.loc 1 182 0
	andl	$1048575, %eax	#, tmp73
	orl	$1072693248, %eax	#, tmp74
	movl	%eax, -12(%ebp)	# tmp74, y.i
	.loc 1 183 0
	fldl	-16(%ebp)	# y.d
	fldl	.LC4@GOTOFF(%ebx)	#
	fxch	%st(1)	#
	fucomi	%st(1), %st	#,
	fstp	%st(1)	#
	jbe	.L75	#,
	.loc 1 184 0
	fmuls	.LC5@GOTOFF(%ebx)	#
	fstpl	-16(%ebp)	# y.d
	.loc 1 185 0
	addl	$1, %esi	#, E.132
.LVL148:
	jmp	.L69	#
.L75:
	fstp	%st(0)	#
.L69:
	.loc 1 189 0
	leal	-32(%ebp), %edx	#, tmp79
	leal	-24(%ebp), %eax	#, tmp80
	movl	%esi, 8(%esp)	# E.132,
	leal	-16(%ebp), %ecx	#, tmp81
	movl	%ecx, 4(%esp)	# tmp81,
	leal	-36(%ebp), %ecx	#, tmp82
	movl	%ecx, (%esp)	# tmp82,
	call	log_quick	#
.LVL149:
	.loc 1 194 0
	fldl	-24(%ebp)	# res_hi
.LVL150:
	fldl	-32(%ebp)	# res_lo
	movl	-36(%ebp), %edx	# rndcstindex, rndcstindex
	movl	rncst@GOT(%ebx), %eax	#, tmp83
	fmull	(%eax,%edx,8)	# rncst
	fadd	%st(1), %st	#,
	fxch	%st(1)	#
	fucomi	%st(1), %st	#,
	fstp	%st(1)	#
	jp	.L76	#,
	je	.L66	#,
	fstp	%st(0)	#
	jmp	.L74	#
.L76:
	fstp	%st(0)	#
.L74:
.LBB34:
	.loc 1 201 0
	movl	%esi, 12(%esp)	# E.132,
	movl	-16(%ebp), %eax	# y, y
	movl	-12(%ebp), %edx	# y, y
	movl	%eax, 4(%esp)	# y,
	movl	%edx, 8(%esp)	# y,
	leal	-84(%ebp), %esi	#, tmp89
.LVL151:
	movl	%esi, (%esp)	# tmp89,
	call	scs_log@PLT	#
.LVL152:
	.loc 1 202 0
	movl	%esi, 4(%esp)	# tmp89,
	leal	-24(%ebp), %eax	#, tmp91
	movl	%eax, (%esp)	# tmp91,
	call	scs_get_d@PLT	#
	.loc 1 203 0
	fldl	-24(%ebp)	# res_hi
.L66:
.LBE34:
	.loc 1 205 0
	addl	$96, %esp	#,
	popl	%ebx	#
	.cfi_restore 3
	popl	%esi	#
	.cfi_restore 6
	popl	%ebp	#
	.cfi_restore 5
	.cfi_def_cfa 4, 4
	ret
	.cfi_endproc
.LFE8:
	.size	log_rn, .-log_rn
.globl delta
	.section	.rodata
	.align 32
	.type	delta, @object
	.size	delta, 32
delta:
	.long	2151095636
	.long	1012179403
	.long	3092957381
	.long	1009744787
	.long	2934441935
	.long	1004721354
	.long	861421142
	.long	1007184417
.globl rncst
	.align 32
	.type	rncst, @object
	.size	rncst, 32
rncst:
	.long	2720386754
	.long	1072783390
	.long	328721757
	.long	1072709494
	.long	3836900176
	.long	1072693850
	.long	774947970
	.long	1072696379
.globl ln2hi
	.align 4
	.type	ln2hi, @object
	.size	ln2hi, 8
ln2hi:
# i:
	.long	-17156096
	.long	1072049730
.globl ln2lo
	.align 4
	.type	ln2lo, @object
	.size	ln2lo, 8
ln2lo:
# i:
	.long	-1815648464
	.long	1026487127
.globl two52
	.align 4
	.type	two52, @object
	.size	two52, 8
two52:
# i:
	.long	0
	.long	1127219200
.globl middle
	.align 32
	.type	middle, @object
	.size	middle, 64
middle:
# i:
	.long	0
	.long	1072103424
# i:
	.long	0
	.long	1072234496
# i:
	.long	0
	.long	1072365568
# i:
	.long	0
	.long	1072496640
# i:
	.long	0
	.long	1072693248
# i:
	.long	0
	.long	1072824320
# i:
	.long	0
	.long	1072955392
# i:
	.long	0
	.long	1073086464
.globl Poly_h
	.align 32
	.type	Poly_h, @object
	.size	Poly_h, 832
Poly_h:
# i:
	.long	121152472
	.long	-1076550994
# i:
	.long	1493901668
	.long	1073103560
# i:
	.long	-1282806867
	.long	-1074857795
# i:
	.long	-816374427
	.long	1072478769
# i:
	.long	828770423
	.long	-1074923023
# i:
	.long	872035223
	.long	1072737975
# i:
	.long	-358382960
	.long	-1074571379
# i:
	.long	-1810029397
	.long	1073156341
# i:
	.long	1774120733
	.long	-1073998683
# i:
	.long	-1261710725
	.long	1073831195
# i:
	.long	2074633778
	.long	-1073365498
# i:
	.long	408854259
	.long	1074504922
# i:
	.long	-1058228954
	.long	-1072585539
# i:
	.long	1823716217
	.long	-1076913892
# i:
	.long	1202590843
	.long	1072986849
# i:
	.long	-350469331
	.long	-1075169566
# i:
	.long	-2131586541
	.long	1072062111
# i:
	.long	-500134849
	.long	-1075480178
# i:
	.long	-512149232
	.long	1072037247
# i:
	.long	-1405303650
	.long	-1075350324
# i:
	.long	2006921654
	.long	1072282655
# i:
	.long	-1668710294
	.long	-1074998606
# i:
	.long	-161227435
	.long	1072719264
# i:
	.long	1691517523
	.long	-1074601049
# i:
	.long	371288233
	.long	1073091540
# i:
	.long	511604193
	.long	-1074140055
# i:
	.long	1800682930
	.long	-1077559488
# i:
	.long	-1113510040
	.long	1072887428
# i:
	.long	-524351289
	.long	-1075414656
# i:
	.long	1600620677
	.long	1071759866
# i:
	.long	459454930
	.long	-1075867203
# i:
	.long	-2109542655
	.long	1071509167
# i:
	.long	-1553268069
	.long	-1075998699
# i:
	.long	2132239169
	.long	1071515702
# i:
	.long	644232753
	.long	-1075895050
# i:
	.long	433647955
	.long	1071671226
# i:
	.long	-324921673
	.long	-1075740750
# i:
	.long	799786169
	.long	1071836390
# i:
	.long	564469326
	.long	-1075539213
# i:
	.long	1566132617
	.long	-1078381730
# i:
	.long	1629125526
	.long	1072801721
# i:
	.long	612837188
	.long	-1075610808
# i:
	.long	704175758
	.long	1071425948
# i:
	.long	1027073108
	.long	-1076381567
# i:
	.long	1439822760
	.long	1070919822
# i:
	.long	879663571
	.long	-1076674241
# i:
	.long	356728422
	.long	1070741029
# i:
	.long	-1720277011
	.long	-1076783775
# i:
	.long	1496708299
	.long	1070677793
# i:
	.long	-2103859548
	.long	-1076813652
# i:
	.long	844975881
	.long	1070677211
# i:
	.long	-2054460067
	.long	-1076792821
# i:
	.long	0
	.long	0
# i:
	.long	0
	.long	1072693248
# i:
	.long	0
	.long	-1075838976
# i:
	.long	1431655810
	.long	1070945621
# i:
	.long	169
	.long	-1076887552
# i:
	.long	-1718254319
	.long	1070176665
# i:
	.long	1431042338
	.long	-1077586603
# i:
	.long	-1548814733
	.long	1069697316
# i:
	.long	484698246
	.long	-1077936128
# i:
	.long	332313017
	.long	1069314436
# i:
	.long	-507658122
	.long	-1078355647
# i:
	.long	-1139523321
	.long	1068990790
# i:
	.long	178620244
	.long	-1078618673
# i:
	.long	1848308454
	.long	1069426439
# i:
	.long	477218588
	.long	1072460231
# i:
	.long	-53024288
	.long	-1076279120
# i:
	.long	-2130790768
	.long	1070462806
# i:
	.long	-1420527078
	.long	-1077675463
# i:
	.long	-1734174377
	.long	1069312400
# i:
	.long	1737590043
	.long	-1078653997
# i:
	.long	-1568083799
	.long	1068501250
# i:
	.long	1596470069
	.long	-1079447150
# i:
	.long	-414150802
	.long	1067693376
# i:
	.long	-1075698113
	.long	-1080063920
# i:
	.long	317687588
	.long	1067037440
# i:
	.long	-1716580844
	.long	-1080756131
# i:
	.long	-946169310
	.long	1070370807
# i:
	.long	-1717986918
	.long	1072273817
# i:
	.long	1202590843
	.long	-1076593951
# i:
	.long	-1007885646
	.long	1069930599
# i:
	.long	-350469270
	.long	-1078315294
# i:
	.long	-1598740702
	.long	1068549879
# i:
	.long	-2131755059
	.long	-1079615841
# i:
	.long	-1763355930
	.long	1067363751
# i:
	.long	-275832717
	.long	-1080723058
# i:
	.long	1906702428
	.long	1066306204
# i:
	.long	-627918472
	.long	-1081737893
# i:
	.long	-614930978
	.long	1065359987
# i:
	.long	1485626479
	.long	-1082677941
# i:
	.long	-1038328126
	.long	1070883211
# i:
	.long	1952257862
	.long	1072121297
# i:
	.long	1810275472
	.long	-1076826891
# i:
	.long	714214450
	.long	1069574568
# i:
	.long	779143049
	.long	-1078859872
# i:
	.long	1843693547
	.long	1067767212
# i:
	.long	282469193
	.long	-1080475377
# i:
	.long	1292112838
	.long	1066368085
# i:
	.long	-1858571224
	.long	-1081865907
# i:
	.long	-156843939
	.long	1064953790
# i:
	.long	-338156735
	.long	-1083116351
# i:
	.long	-1840142385
	.long	1063685292
# i:
	.long	177896882
	.long	-1084352437
.globl Poly_l
	.align 32
	.type	Poly_l, @object
	.size	Poly_l, 128
Poly_l:
# i:
	.long	2029390247
	.long	1013512169
# i:
	.long	1915790840
	.long	1015431291
# i:
	.long	2033157597
	.long	-1133550000
# i:
	.long	-136469814
	.long	-1132545569
# i:
	.long	-387024341
	.long	1008858547
# i:
	.long	753541168
	.long	1016264288
# i:
	.long	1383540431
	.long	1012168872
# i:
	.long	-1531402503
	.long	1014081407
# i:
	.long	0
	.long	0
# i:
	.long	-1426521189
	.long	-1140594406
# i:
	.long	-607911166
	.long	-1137306192
# i:
	.long	75474814
	.long	1015829974
# i:
	.long	-1750853279
	.long	-1134233973
# i:
	.long	-1645953471
	.long	-1131831120
# i:
	.long	-1756287920
	.long	1014973150
# i:
	.long	-1823665299
	.long	-1133032981
	.align 4
	.type	NInf, @object
	.size	NInf, 8
NInf:
# i:
	.long	0
	.long	-1048576
	.align 4
	.type	NaN, @object
	.size	NaN, 8
NaN:
# i:
	.long	0
	.long	-524288
	.comm	crlibm_second_step_taken,4,4
	.section	.rodata.cst4,"aM",@progbits,4
	.align 4
.LC0:
	.long	1127809024
	.section	.rodata.cst8,"aM",@progbits,8
	.align 8
.LC1:
	.long	33554432
	.long	1101004800
	.section	.rodata.cst4
	.align 4
.LC2:
	.long	0
	.align 4
.LC3:
	.long	1102577664
	.section	.rodata.cst8
	.align 8
.LC4:
	.long	1719614413
	.long	1073127582
	.section	.rodata.cst4
	.align 4
.LC5:
	.long	1056964608
	.section	.text.__i686.get_pc_thunk.bx,"axG",@progbits,__i686.get_pc_thunk.bx,comdat
.globl __i686.get_pc_thunk.bx
	.hidden	__i686.get_pc_thunk.bx
	.type	__i686.get_pc_thunk.bx, @function
__i686.get_pc_thunk.bx:
.LFB12:
	.cfi_startproc
	movl	(%esp), %ebx	#,
	ret
	.cfi_endproc
.LFE12:
	.text
.Letext0:
	.section	.note.GNU-stack,"",@progbits
