	.file	"tan.c"
# GNU C (GCC) version 4.4.7 20120313 (Red Hat 4.4.7-11) (x86_64-redhat-linux)
#	compiled by GNU C version 4.4.7 20120313 (Red Hat 4.4.7-11), GMP version 4.3.1, MPFR version 2.4.1.
# GGC heuristics: --param ggc-min-expand=100 --param ggc-min-heapsize=131072
# options passed:  -I. -imultilib 32 -DLINUX_INLINE -DHAVE_CONFIG_H tan.c
# -m32 -mtune=generic -march=i686 -g -O1 -Wall -Wshadow -Wpointer-arith
# -Wcast-align -Wconversion -Waggregate-return -Wstrict-prototypes
# -Wnested-externs -Wlong-long -Winline -pedantic -std=c99 -fPIC
# -fno-strict-aliasing -fverbose-asm
# options enabled:  -fPIC -falign-loops -fargument-alias -fauto-inc-dec
# -fbranch-count-reg -fcommon -fcprop-registers -fdefer-pop
# -fdwarf2-cfi-asm -fearly-inlining -feliminate-unused-debug-types
# -ffunction-cse -fgcse-lm -fguess-branch-probability -fident
# -fif-conversion -fif-conversion2 -finline -finline-functions-called-once
# -fipa-pure-const -fipa-reference -fira-share-save-slots
# -fira-share-spill-slots -fivopts -fkeep-static-consts
# -fleading-underscore -fmath-errno -fmerge-constants -fmerge-debug-strings
# -fmove-loop-invariants -fpcc-struct-return -fpeephole -fsched-interblock
# -fsched-spec -fsched-stalled-insns-dep -fsigned-zeros
# -fsplit-ivs-in-unroller -fsplit-wide-types -ftoplevel-reorder
# -ftrapping-math -ftree-ccp -ftree-ch -ftree-coalesce-vars
# -ftree-copy-prop -ftree-copyrename -ftree-cselim -ftree-dce
# -ftree-dominator-opts -ftree-dse -ftree-fre -ftree-loop-im
# -ftree-loop-ivcanon -ftree-loop-optimize -ftree-parallelize-loops=
# -ftree-reassoc -ftree-scev-cprop -ftree-sink -ftree-sra
# -ftree-switch-conversion -ftree-ter -ftree-vect-loop-version
# -funit-at-a-time -fvar-tracking -fvar-tracking-assignments
# -fvect-cost-model -fverbose-asm -fzero-initialized-in-bss -m32 -m80387
# -m96bit-long-double -maccumulate-outgoing-args -malign-stringops
# -mfancy-math-387 -mfp-ret-in-387 -mfused-madd -mglibc -mieee-fp
# -mno-red-zone -mno-sse4 -mpush-args -msahf -mtls-direct-seg-refs

	.text
.Ltext0:
# Compiler executable checksum: c4107769ffcd19d44690c951fbc131c4

	.cfi_sections	.debug_frame
.globl scs_tan
	.type	scs_tan, @function
scs_tan:
.LFB7:
	.file 1 "tan.c"
	.loc 1 49 0
	.cfi_startproc
.LVL0:
	pushl	%ebp	#
	.cfi_def_cfa_offset 8
	.cfi_offset 5, -8
	movl	%esp, %ebp	#,
	.cfi_def_cfa_register 5
	pushl	%edi	#
	pushl	%esi	#
	pushl	%ebx	#
	subl	$140, %esp	#,
	.cfi_offset 3, -20
	.cfi_offset 6, -16
	.cfi_offset 7, -12
	call	__i686.get_pc_thunk.bx	#
	addl	$_GLOBAL_OFFSET_TABLE_, %ebx	#,
	.loc 1 54 0
	movl	8(%ebp), %eax	# x_scs,
	movl	%eax, 4(%esp)	#,
	leal	-120(%ebp), %eax	#, tmp127
	movl	%eax, (%esp)	# tmp127,
	call	scs_square@PLT	#
	.loc 1 58 0
	movl	8(%ebp), %eax	# x_scs,
	cmpl	$100100999, 36(%eax)	#, <variable>.exception.i
	jg	.L2	#,
	.loc 1 59 0
	leal	-120(%ebp), %eax	#,
	movl	%eax, -124(%ebp)	#, %sfp
	movl	%eax, 8(%esp)	#,
	leal	cste_poly@GOTOFF(%ebx), %edi	#, tmp129
	movl	%edi, 4(%esp)	# tmp129,
	leal	-72(%ebp), %esi	#, tmp130
	movl	%esi, (%esp)	# tmp130,
	call	scs_mul@PLT	#
	.loc 1 60 0
	movl	%esi, 8(%esp)	# tmp130,
	leal	48(%edi), %eax	#, tmp132
	movl	%eax, 4(%esp)	# tmp132,
	movl	%esi, (%esp)	# tmp130,
	call	scs_add@PLT	#
	.loc 1 61 0
	movl	-124(%ebp), %eax	# %sfp,
	movl	%eax, 8(%esp)	#,
	movl	%esi, 4(%esp)	# tmp130,
	movl	%esi, (%esp)	# tmp130,
	call	scs_mul@PLT	#
	.loc 1 62 0
	movl	%esi, 8(%esp)	# tmp130,
	leal	96(%edi), %eax	#, tmp138
	movl	%eax, 4(%esp)	# tmp138,
	movl	%esi, (%esp)	# tmp130,
	call	scs_add@PLT	#
	.loc 1 63 0
	movl	-124(%ebp), %eax	# %sfp,
	movl	%eax, 8(%esp)	#,
	movl	%esi, 4(%esp)	# tmp130,
	movl	%esi, (%esp)	# tmp130,
	call	scs_mul@PLT	#
	.loc 1 64 0
	movl	%esi, 8(%esp)	# tmp130,
	movl	8(%ebp), %eax	# x_scs,
	movl	%eax, 4(%esp)	#,
	movl	%esi, (%esp)	# tmp130,
	call	scs_mul@PLT	#
	.loc 1 65 0
	movl	%esi, 8(%esp)	# tmp130,
	movl	8(%ebp), %eax	# x_scs,
	movl	%eax, 4(%esp)	#,
	movl	%eax, (%esp)	#,
	call	scs_add@PLT	#
	.loc 1 66 0
	jmp	.L5	#
.L2:
	.loc 1 72 0
	leal	-120(%ebp), %eax	#, tmp146
	movl	%eax, 8(%esp)	# tmp146,
	leal	constant_poly@GOTOFF(%ebx), %esi	#, tmp147
	movl	%esi, 4(%esp)	# tmp147,
	leal	-72(%ebp), %eax	#, tmp148
	movl	%eax, (%esp)	# tmp148,
	call	scs_mul@PLT	#
.LVL1:
	leal	48(%esi), %edi	#, ivtmp.41
	.loc 1 49 0
	leal	1584(%esi), %esi	#,
	movl	%esi, -124(%ebp)	#, %sfp
	.loc 1 75 0
	leal	-72(%ebp), %esi	#, tmp157
	.loc 1 76 0
	leal	-120(%ebp), %eax	#,
	movl	%eax, -128(%ebp)	#, %sfp
.LVL2:
.L4:
	.loc 1 75 0
	movl	%esi, 8(%esp)	# tmp157,
	movl	%edi, 4(%esp)	# ivtmp.41,
	movl	%esi, (%esp)	# tmp157,
	call	scs_add@PLT	#
	.loc 1 76 0
	movl	-128(%ebp), %eax	# %sfp,
	movl	%eax, 8(%esp)	#,
	movl	%esi, 4(%esp)	# tmp157,
	movl	%esi, (%esp)	# tmp157,
	call	scs_mul@PLT	#
	addl	$48, %edi	#, ivtmp.41
	.loc 1 74 0
	cmpl	-124(%ebp), %edi	# %sfp, ivtmp.41
	jne	.L4	#,
	.loc 1 79 0
	movl	8(%ebp), %eax	# x_scs,
	movl	%eax, 8(%esp)	#,
	leal	-72(%ebp), %esi	#, tmp154
	movl	%esi, 4(%esp)	# tmp154,
	movl	%esi, (%esp)	# tmp154,
	call	scs_mul@PLT	#
	.loc 1 80 0
	movl	%esi, 8(%esp)	# tmp154,
	movl	8(%ebp), %eax	# x_scs,
	movl	%eax, 4(%esp)	#,
	movl	%eax, (%esp)	#,
	call	scs_add@PLT	#
.L5:
	.loc 1 85 0
	addl	$140, %esp	#,
	popl	%ebx	#
	.cfi_restore 3
	popl	%esi	#
	.cfi_restore 6
	popl	%edi	#
	.cfi_restore 7
	popl	%ebp	#
	.cfi_restore 5
	.cfi_def_cfa 4, 4
	ret
	.cfi_endproc
.LFE7:
	.size	scs_tan, .-scs_tan
	.section	.rodata.str1.4,"aMS",@progbits,1
	.align 4
.LC0:
	.string	"ERREUR: %d is not a valid value in su_tan \n"
	.text
.globl scs_tan_rz
	.type	scs_tan_rz, @function
scs_tan_rz:
.LFB11:
	.loc 1 199 0
	.cfi_startproc
.LVL3:
	pushl	%ebp	#
	.cfi_def_cfa_offset 8
	.cfi_offset 5, -8
	movl	%esp, %ebp	#,
	.cfi_def_cfa_register 5
	pushl	%esi	#
	pushl	%ebx	#
	addl	$-128, %esp	#,
	.cfi_offset 3, -16
	.cfi_offset 6, -12
	call	__i686.get_pc_thunk.bx	#
	addl	$_GLOBAL_OFFSET_TABLE_, %ebx	#,
	.loc 1 204 0
	fldl	8(%ebp)	# x
	fstpl	4(%esp)	#
	leal	-56(%ebp), %esi	#, tmp63
	movl	%esi, (%esp)	# tmp63,
	call	scs_set_d@PLT	#
	.loc 1 205 0
	movl	%esi, 4(%esp)	# tmp63,
	leal	-104(%ebp), %eax	#, tmp65
	movl	%eax, (%esp)	# tmp65,
	call	rem_pio2_scs@PLT	#
.LVL4:
	.loc 1 208 0
	andl	$1, %eax	#, N.58
.LVL5:
	je	.L9	#,
	cmpl	$1, %eax	#, N.58
	jne	.L13	#,
	.p2align 4,,5
	jmp	.L14	#
.L9:
	.loc 1 210 0
	leal	-104(%ebp), %esi	#, tmp66
	movl	%esi, (%esp)	# tmp66,
	call	scs_tan@PLT	#
.LVL6:
	.loc 1 211 0
	movl	%esi, 4(%esp)	# tmp66,
	leal	-112(%ebp), %eax	#, tmp68
	movl	%eax, (%esp)	# tmp68,
	call	scs_get_d_zero@PLT	#
.LVL7:
	.loc 1 212 0
	fldl	-112(%ebp)	# resd
	jmp	.L11	#
.LVL8:
.L14:
	.loc 1 215 0
	leal	-104(%ebp), %esi	#, tmp69
	movl	%esi, (%esp)	# tmp69,
	call	scs_tan@PLT	#
.LVL9:
	.loc 1 216 0
	movl	%esi, 4(%esp)	# tmp69,
	movl	%esi, (%esp)	# tmp69,
	call	scs_inv@PLT	#
	.loc 1 217 0
	movl	%esi, 4(%esp)	# tmp69,
	leal	-112(%ebp), %eax	#, tmp73
	movl	%eax, (%esp)	# tmp73,
	call	scs_get_d_zero@PLT	#
.LVL10:
	.loc 1 218 0
	fldl	-112(%ebp)	# resd
	fchs
	jmp	.L11	#
.LVL11:
.L13:
	.loc 1 221 0
	movl	%eax, 8(%esp)	# N.58,
	leal	.LC0@GOTOFF(%ebx), %eax	#, tmp75
.LVL12:
	movl	%eax, 4(%esp)	# tmp75,
	movl	stderr@GOT(%ebx), %eax	#, tmp76
	movl	(%eax), %eax	# stderr, stderr
	movl	%eax, (%esp)	# stderr,
	call	fprintf@PLT	#
.LVL13:
	.loc 1 222 0
	movl	$1, (%esp)	#,
	call	exit@PLT	#
.LVL14:
.L11:
	.loc 1 225 0
	subl	$-128, %esp	#,
	popl	%ebx	#
	.cfi_restore 3
	popl	%esi	#
	.cfi_restore 6
	popl	%ebp	#
	.cfi_restore 5
	.cfi_def_cfa 4, 4
	ret
	.cfi_endproc
.LFE11:
	.size	scs_tan_rz, .-scs_tan_rz
.globl scs_tan_ru
	.type	scs_tan_ru, @function
scs_tan_ru:
.LFB10:
	.loc 1 166 0
	.cfi_startproc
.LVL15:
	pushl	%ebp	#
	.cfi_def_cfa_offset 8
	.cfi_offset 5, -8
	movl	%esp, %ebp	#,
	.cfi_def_cfa_register 5
	pushl	%esi	#
	pushl	%ebx	#
	addl	$-128, %esp	#,
	.cfi_offset 3, -16
	.cfi_offset 6, -12
	call	__i686.get_pc_thunk.bx	#
	addl	$_GLOBAL_OFFSET_TABLE_, %ebx	#,
	.loc 1 171 0
	fldl	8(%ebp)	# x
	fstpl	4(%esp)	#
	leal	-56(%ebp), %esi	#, tmp63
	movl	%esi, (%esp)	# tmp63,
	call	scs_set_d@PLT	#
	.loc 1 172 0
	movl	%esi, 4(%esp)	# tmp63,
	leal	-104(%ebp), %eax	#, tmp65
	movl	%eax, (%esp)	# tmp65,
	call	rem_pio2_scs@PLT	#
.LVL16:
	.loc 1 175 0
	andl	$1, %eax	#, N.71
.LVL17:
	je	.L17	#,
	cmpl	$1, %eax	#, N.71
	jne	.L21	#,
	.p2align 4,,5
	jmp	.L22	#
.L17:
	.loc 1 177 0
	leal	-104(%ebp), %esi	#, tmp66
	movl	%esi, (%esp)	# tmp66,
	call	scs_tan@PLT	#
.LVL18:
	.loc 1 178 0
	movl	%esi, 4(%esp)	# tmp66,
	leal	-112(%ebp), %eax	#, tmp68
	movl	%eax, (%esp)	# tmp68,
	call	scs_get_d_pinf@PLT	#
.LVL19:
	.loc 1 179 0
	fldl	-112(%ebp)	# resd
	jmp	.L19	#
.LVL20:
.L22:
	.loc 1 182 0
	leal	-104(%ebp), %esi	#, tmp69
	movl	%esi, (%esp)	# tmp69,
	call	scs_tan@PLT	#
.LVL21:
	.loc 1 183 0
	movl	%esi, 4(%esp)	# tmp69,
	movl	%esi, (%esp)	# tmp69,
	call	scs_inv@PLT	#
	.loc 1 184 0
	movl	%esi, 4(%esp)	# tmp69,
	leal	-112(%ebp), %eax	#, tmp73
	movl	%eax, (%esp)	# tmp73,
	call	scs_get_d_minf@PLT	#
.LVL22:
	.loc 1 185 0
	fldl	-112(%ebp)	# resd
	fchs
	jmp	.L19	#
.LVL23:
.L21:
	.loc 1 188 0
	movl	%eax, 8(%esp)	# N.71,
	leal	.LC0@GOTOFF(%ebx), %eax	#, tmp75
.LVL24:
	movl	%eax, 4(%esp)	# tmp75,
	movl	stderr@GOT(%ebx), %eax	#, tmp76
	movl	(%eax), %eax	# stderr, stderr
	movl	%eax, (%esp)	# stderr,
	call	fprintf@PLT	#
.LVL25:
	.loc 1 189 0
	movl	$1, (%esp)	#,
	call	exit@PLT	#
.LVL26:
.L19:
	.loc 1 192 0
	subl	$-128, %esp	#,
	popl	%ebx	#
	.cfi_restore 3
	popl	%esi	#
	.cfi_restore 6
	popl	%ebp	#
	.cfi_restore 5
	.cfi_def_cfa 4, 4
	ret
	.cfi_endproc
.LFE10:
	.size	scs_tan_ru, .-scs_tan_ru
	.section	.rodata.str1.4
	.align 4
.LC1:
	.string	"ERREUR: %d is not a valid value in tan_rd \n"
	.text
.globl scs_tan_rd
	.type	scs_tan_rd, @function
scs_tan_rd:
.LFB9:
	.loc 1 132 0
	.cfi_startproc
.LVL27:
	pushl	%ebp	#
	.cfi_def_cfa_offset 8
	.cfi_offset 5, -8
	movl	%esp, %ebp	#,
	.cfi_def_cfa_register 5
	pushl	%esi	#
	pushl	%ebx	#
	addl	$-128, %esp	#,
	.cfi_offset 3, -16
	.cfi_offset 6, -12
	call	__i686.get_pc_thunk.bx	#
	addl	$_GLOBAL_OFFSET_TABLE_, %ebx	#,
	.loc 1 137 0
	fldl	8(%ebp)	# x
	fstpl	4(%esp)	#
	leal	-56(%ebp), %esi	#, tmp63
	movl	%esi, (%esp)	# tmp63,
	call	scs_set_d@PLT	#
	.loc 1 138 0
	movl	%esi, 4(%esp)	# tmp63,
	leal	-104(%ebp), %eax	#, tmp65
	movl	%eax, (%esp)	# tmp65,
	call	rem_pio2_scs@PLT	#
.LVL28:
	.loc 1 141 0
	andl	$1, %eax	#, N.84
.LVL29:
	je	.L25	#,
	cmpl	$1, %eax	#, N.84
	jne	.L29	#,
	.p2align 4,,5
	jmp	.L30	#
.L25:
	.loc 1 143 0
	leal	-104(%ebp), %esi	#, tmp66
	movl	%esi, (%esp)	# tmp66,
	call	scs_tan@PLT	#
.LVL30:
	.loc 1 144 0
	movl	%esi, 4(%esp)	# tmp66,
	leal	-112(%ebp), %eax	#, tmp68
	movl	%eax, (%esp)	# tmp68,
	call	scs_get_d_minf@PLT	#
.LVL31:
	.loc 1 145 0
	fldl	-112(%ebp)	# resd
	jmp	.L27	#
.LVL32:
.L30:
	.loc 1 148 0
	leal	-104(%ebp), %esi	#, tmp69
	movl	%esi, (%esp)	# tmp69,
	call	scs_tan@PLT	#
.LVL33:
	.loc 1 149 0
	movl	%esi, 4(%esp)	# tmp69,
	movl	%esi, (%esp)	# tmp69,
	call	scs_inv@PLT	#
	.loc 1 150 0
	movl	%esi, 4(%esp)	# tmp69,
	leal	-112(%ebp), %eax	#, tmp73
	movl	%eax, (%esp)	# tmp73,
	call	scs_get_d_pinf@PLT	#
.LVL34:
	.loc 1 151 0
	fldl	-112(%ebp)	# resd
	fchs
	jmp	.L27	#
.LVL35:
.L29:
	.loc 1 154 0
	movl	%eax, 8(%esp)	# N.84,
	leal	.LC1@GOTOFF(%ebx), %eax	#, tmp75
.LVL36:
	movl	%eax, 4(%esp)	# tmp75,
	movl	stderr@GOT(%ebx), %eax	#, tmp76
	movl	(%eax), %eax	# stderr, stderr
	movl	%eax, (%esp)	# stderr,
	call	fprintf@PLT	#
.LVL37:
	.loc 1 155 0
	movl	$1, (%esp)	#,
	call	exit@PLT	#
.LVL38:
.L27:
	.loc 1 158 0
	subl	$-128, %esp	#,
	popl	%ebx	#
	.cfi_restore 3
	popl	%esi	#
	.cfi_restore 6
	popl	%ebp	#
	.cfi_restore 5
	.cfi_def_cfa 4, 4
	ret
	.cfi_endproc
.LFE9:
	.size	scs_tan_rd, .-scs_tan_rd
	.section	.rodata.str1.4
	.align 4
.LC2:
	.string	"ERREUR: %d is not a valid value in sn_tan \n"
	.text
.globl scs_tan_rn
	.type	scs_tan_rn, @function
scs_tan_rn:
.LFB8:
	.loc 1 94 0
	.cfi_startproc
.LVL39:
	pushl	%ebp	#
	.cfi_def_cfa_offset 8
	.cfi_offset 5, -8
	movl	%esp, %ebp	#,
	.cfi_def_cfa_register 5
	pushl	%esi	#
	pushl	%ebx	#
	addl	$-128, %esp	#,
	.cfi_offset 3, -16
	.cfi_offset 6, -12
	call	__i686.get_pc_thunk.bx	#
	addl	$_GLOBAL_OFFSET_TABLE_, %ebx	#,
	.loc 1 104 0
	fldl	8(%ebp)	# x
	fstpl	4(%esp)	#
	leal	-56(%ebp), %esi	#, tmp63
	movl	%esi, (%esp)	# tmp63,
	call	scs_set_d@PLT	#
	.loc 1 105 0
	movl	%esi, 4(%esp)	# tmp63,
	leal	-104(%ebp), %eax	#, tmp65
	movl	%eax, (%esp)	# tmp65,
	call	rem_pio2_scs@PLT	#
.LVL40:
	.loc 1 108 0
	andl	$1, %eax	#, N.97
.LVL41:
	je	.L33	#,
	cmpl	$1, %eax	#, N.97
	jne	.L37	#,
	.p2align 4,,5
	jmp	.L38	#
.L33:
	.loc 1 110 0
	leal	-104(%ebp), %esi	#, tmp66
	movl	%esi, (%esp)	# tmp66,
	call	scs_tan@PLT	#
.LVL42:
	.loc 1 111 0
	movl	%esi, 4(%esp)	# tmp66,
	leal	-112(%ebp), %eax	#, tmp68
	movl	%eax, (%esp)	# tmp68,
	call	scs_get_d@PLT	#
.LVL43:
	.loc 1 112 0
	fldl	-112(%ebp)	# resd
	jmp	.L35	#
.LVL44:
.L38:
	.loc 1 115 0
	leal	-104(%ebp), %esi	#, tmp69
	movl	%esi, (%esp)	# tmp69,
	call	scs_tan@PLT	#
.LVL45:
	.loc 1 116 0
	movl	%esi, 4(%esp)	# tmp69,
	movl	%esi, (%esp)	# tmp69,
	call	scs_inv@PLT	#
	.loc 1 117 0
	movl	%esi, 4(%esp)	# tmp69,
	leal	-112(%ebp), %eax	#, tmp73
	movl	%eax, (%esp)	# tmp73,
	call	scs_get_d@PLT	#
.LVL46:
	.loc 1 118 0
	fldl	-112(%ebp)	# resd
	fchs
	jmp	.L35	#
.LVL47:
.L37:
	.loc 1 121 0
	movl	%eax, 8(%esp)	# N.97,
	leal	.LC2@GOTOFF(%ebx), %eax	#, tmp75
.LVL48:
	movl	%eax, 4(%esp)	# tmp75,
	movl	stderr@GOT(%ebx), %eax	#, tmp76
	movl	(%eax), %eax	# stderr, stderr
	movl	%eax, (%esp)	# stderr,
	call	fprintf@PLT	#
.LVL49:
	fldz
.LVL50:
.L35:
	.loc 1 124 0
	subl	$-128, %esp	#,
	popl	%ebx	#
	.cfi_restore 3
	popl	%esi	#
	.cfi_restore 6
	popl	%ebp	#
	.cfi_restore 5
	.cfi_def_cfa 4, 4
	ret
	.cfi_endproc
.LFE8:
	.size	scs_tan_rn, .-scs_tan_rn
	.section	.rodata
	.align 32
	.type	cste_poly, @object
	.size	cste_poly, 144
cste_poly:
# h_word:
	.long	57947971
	.long	487444701
	.long	57947971
	.long	487444701
	.long	57947971
	.long	487444701
	.long	57947971
	.long	487444701
# exception:
# i:
	.long	0
	.long	1072693248
# index:
	.long	-1
# sign:
	.long	1
# h_word:
	.long	143165576
	.long	572662306
	.long	143165576
	.long	572662306
	.long	143165576
	.long	572662306
	.long	143165576
	.long	572662306
# exception:
# i:
	.long	0
	.long	1072693248
# index:
	.long	-1
# sign:
	.long	1
# h_word:
	.long	357913941
	.long	357913941
	.long	357913941
	.long	357913941
	.long	357913941
	.long	357913941
	.long	357913941
	.long	357913941
# exception:
# i:
	.long	0
	.long	1072693248
# index:
	.long	-1
# sign:
	.long	1
	.align 32
	.type	constant_poly, @object
	.size	constant_poly, 1632
constant_poly:
# h_word:
	.long	1849105
	.long	174470838
	.long	142896235
	.long	194871276
	.long	698421391
	.long	540411474
	.long	893726418
	.long	922444074
# exception:
# i:
	.long	0
	.long	1072693248
# index:
	.long	-2
# sign:
	.long	1
# h_word:
	.long	7649781
	.long	63530693
	.long	829337600
	.long	401528277
	.long	714020295
	.long	193043035
	.long	237518830
	.long	530679284
# exception:
# i:
	.long	0
	.long	1072693248
# index:
	.long	-2
# sign:
	.long	-1
# h_word:
	.long	19620113
	.long	172548684
	.long	991924079
	.long	359843406
	.long	574161720
	.long	750633666
	.long	753820095
	.long	89696592
# exception:
# i:
	.long	0
	.long	1072693248
# index:
	.long	-2
# sign:
	.long	1
# h_word:
	.long	28675284
	.long	27695652
	.long	252386338
	.long	385046208
	.long	1033655318
	.long	194362661
	.long	960320658
	.long	524193162
# exception:
# i:
	.long	0
	.long	1072693248
# index:
	.long	-2
# sign:
	.long	-1
# h_word:
	.long	39361449
	.long	822543916
	.long	521982825
	.long	482541797
	.long	754639123
	.long	298040741
	.long	480406305
	.long	648308899
# exception:
# i:
	.long	0
	.long	1072693248
# index:
	.long	-2
# sign:
	.long	1
# h_word:
	.long	22327398
	.long	666342448
	.long	851695510
	.long	175557172
	.long	715879615
	.long	222568143
	.long	681014700
	.long	896400057
# exception:
# i:
	.long	0
	.long	1072693248
# index:
	.long	-2
# sign:
	.long	-1
# h_word:
	.long	47183772
	.long	583802118
	.long	284210163
	.long	959048554
	.long	804205505
	.long	217268852
	.long	288056657
	.long	140897117
# exception:
# i:
	.long	0
	.long	1072693248
# index:
	.long	-2
# sign:
	.long	1
# h_word:
	.long	45489911
	.long	370532786
	.long	720646687
	.long	856095739
	.long	564073333
	.long	1040103545
	.long	41954313
	.long	272571091
# exception:
# i:
	.long	0
	.long	1072693248
# index:
	.long	-2
# sign:
	.long	1
# h_word:
	.long	152816790
	.long	52294321
	.long	651388184
	.long	350018978
	.long	178447225
	.long	450065347
	.long	502408296
	.long	989799359
# exception:
# i:
	.long	0
	.long	1072693248
# index:
	.long	-2
# sign:
	.long	1
# h_word:
	.long	357665616
	.long	393786321
	.long	49147736
	.long	155644349
	.long	450314400
	.long	656927356
	.long	225415158
	.long	682638564
# exception:
# i:
	.long	0
	.long	1072693248
# index:
	.long	-2
# sign:
	.long	1
# h_word:
	.long	890324845
	.long	980026428
	.long	36124160
	.long	632428858
	.long	223322341
	.long	602885799
	.long	74075360
	.long	547407281
# exception:
# i:
	.long	0
	.long	1072693248
# index:
	.long	-2
# sign:
	.long	1
# h_word:
	.long	2
	.long	46626656
	.long	1020580076
	.long	527016193
	.long	704147762
	.long	94269821
	.long	20501854
	.long	616072651
# exception:
# i:
	.long	0
	.long	1072693248
# index:
	.long	-1
# sign:
	.long	1
# h_word:
	.long	5
	.long	45823783
	.long	92485141
	.long	814649590
	.long	274634976
	.long	595663410
	.long	881814534
	.long	711868940
# exception:
# i:
	.long	0
	.long	1072693248
# index:
	.long	-1
# sign:
	.long	1
# h_word:
	.long	12
	.long	474726734
	.long	968014309
	.long	201576087
	.long	768900348
	.long	689452010
	.long	513672716
	.long	211894840
# exception:
# i:
	.long	0
	.long	1072693248
# index:
	.long	-1
# sign:
	.long	1
# h_word:
	.long	30
	.long	751349648
	.long	354591227
	.long	670002875
	.long	483093909
	.long	951890035
	.long	723074162
	.long	880498116
# exception:
# i:
	.long	0
	.long	1072693248
# index:
	.long	-1
# sign:
	.long	1
# h_word:
	.long	75
	.long	803789158
	.long	966060604
	.long	662127590
	.long	76405935
	.long	1014118603
	.long	859180285
	.long	42381443
# exception:
# i:
	.long	0
	.long	1072693248
# index:
	.long	-1
# sign:
	.long	1
# h_word:
	.long	186
	.long	968674055
	.long	651826053
	.long	1003104867
	.long	82420492
	.long	956778096
	.long	277747447
	.long	767832715
# exception:
# i:
	.long	0
	.long	1072693248
# index:
	.long	-1
# sign:
	.long	1
# h_word:
	.long	461
	.long	174553380
	.long	259891806
	.long	424187599
	.long	569421061
	.long	683144602
	.long	783574605
	.long	914193028
# exception:
# i:
	.long	0
	.long	1072693248
# index:
	.long	-1
# sign:
	.long	1
# h_word:
	.long	1137
	.long	937399746
	.long	510861593
	.long	794749437
	.long	818744964
	.long	908729315
	.long	668805088
	.long	624535532
# exception:
# i:
	.long	0
	.long	1072693248
# index:
	.long	-1
# sign:
	.long	1
# h_word:
	.long	2807
	.long	632589980
	.long	702735876
	.long	67823349
	.long	690268976
	.long	312911056
	.long	439516517
	.long	1038743257
# exception:
# i:
	.long	0
	.long	1072693248
# index:
	.long	-1
# sign:
	.long	1
# h_word:
	.long	6927
	.long	481622921
	.long	248902322
	.long	264472229
	.long	884916917
	.long	1048846924
	.long	265456696
	.long	788680191
# exception:
# i:
	.long	0
	.long	1072693248
# index:
	.long	-1
# sign:
	.long	1
# h_word:
	.long	17092
	.long	852728416
	.long	336580499
	.long	503395107
	.long	633102312
	.long	676229095
	.long	25537114
	.long	244547153
# exception:
# i:
	.long	0
	.long	1072693248
# index:
	.long	-1
# sign:
	.long	1
# h_word:
	.long	42174
	.long	836584612
	.long	748298630
	.long	884018684
	.long	731288232
	.long	761374750
	.long	532709936
	.long	881597713
# exception:
# i:
	.long	0
	.long	1072693248
# index:
	.long	-1
# sign:
	.long	1
# h_word:
	.long	104062
	.long	103543486
	.long	747251176
	.long	508377218
	.long	774673082
	.long	507087055
	.long	551771035
	.long	193199749
# exception:
# i:
	.long	0
	.long	1072693248
# index:
	.long	-1
# sign:
	.long	1
# h_word:
	.long	256762
	.long	999975091
	.long	138630519
	.long	914126923
	.long	46063293
	.long	281984763
	.long	243544049
	.long	700531532
# exception:
# i:
	.long	0
	.long	1072693248
# index:
	.long	-1
# sign:
	.long	1
# h_word:
	.long	633537
	.long	151022824
	.long	579935018
	.long	500481214
	.long	63131808
	.long	53025047
	.long	961458880
	.long	615964597
# exception:
# i:
	.long	0
	.long	1072693248
# index:
	.long	-1
# sign:
	.long	1
# h_word:
	.long	1563190
	.long	290119032
	.long	728374675
	.long	402409161
	.long	1002054353
	.long	965516567
	.long	430711539
	.long	545208220
# exception:
# i:
	.long	0
	.long	1072693248
# index:
	.long	-1
# sign:
	.long	1
# h_word:
	.long	3857018
	.long	118144751
	.long	918525979
	.long	316912837
	.long	745498703
	.long	644992374
	.long	394966662
	.long	228258409
# exception:
# i:
	.long	0
	.long	1072693248
# index:
	.long	-1
# sign:
	.long	1
# h_word:
	.long	9516826
	.long	734889081
	.long	128821473
	.long	854194342
	.long	546689675
	.long	906203575
	.long	610802072
	.long	88327764
# exception:
# i:
	.long	0
	.long	1072693248
# index:
	.long	-1
# sign:
	.long	1
# h_word:
	.long	23482184
	.long	548422631
	.long	858614714
	.long	309813334
	.long	410529935
	.long	697801543
	.long	71852939
	.long	951998003
# exception:
# i:
	.long	0
	.long	1072693248
# index:
	.long	-1
# sign:
	.long	1
# h_word:
	.long	57947971
	.long	487444701
	.long	57947971
	.long	487444701
	.long	67461616
	.long	622558374
	.long	155139052
	.long	616968163
# exception:
# i:
	.long	0
	.long	1072693248
# index:
	.long	-1
# sign:
	.long	1
# h_word:
	.long	143165576
	.long	572662306
	.long	143165576
	.long	572662306
	.long	143155054
	.long	588264164
	.long	1037657337
	.long	53832301
# exception:
# i:
	.long	0
	.long	1072693248
# index:
	.long	-1
# sign:
	.long	1
# h_word:
	.long	357913941
	.long	357913941
	.long	357913941
	.long	357913941
	.long	357913943
	.long	290727956
	.long	427806413
	.long	825889411
# exception:
# i:
	.long	0
	.long	1072693248
# index:
	.long	-1
# sign:
	.long	1
# h_word:
	.long	1
	.long	0
	.long	0
	.long	0
	.long	0
	.long	0
	.long	0
	.long	0
# exception:
# i:
	.long	0
	.long	1072693248
# index:
	.long	0
# sign:
	.long	1
	.comm	crlibm_second_step_taken,4,4
	.section	.text.__i686.get_pc_thunk.bx,"axG",@progbits,__i686.get_pc_thunk.bx,comdat
.globl __i686.get_pc_thunk.bx
	.hidden	__i686.get_pc_thunk.bx
	.type	__i686.get_pc_thunk.bx, @function
__i686.get_pc_thunk.bx:
.LFB12:
	.cfi_startproc
	movl	(%esp), %ebx	#,
	ret
	.cfi_endproc
.LFE12:
	.text
.Letext0:
	.section	.note.GNU-stack,"",@progbits
